(dp0
Vpenicillin
p1
VPEN
p2
sVpolymyxin
p3
VPMB
p4
sVamikacin
p5
VAMK
p6
sVtrimethoprim
p7
VTMP
p8
sVbacitracin
p9
VBAC
p10
sVchloramphenicol
p11
VCHL
p12
sVisepamicin
p13
VISP
p14
sVmafenide
p15
VMAF
p16
sVdiaminopyrimidine
p17
VDAP
p18
sVkanamycin A
p19
VKAN
p20
sVbutirosin
p21
VBUT
p22
sVsulfadoxine
p23
VSDX
p24
sVcloxacillin
p25
VCLX
p26
sVastromicin
p27
VASTM
p28
sVneomycin
p29
VNEO
p30
sVlividomycin
p31
VLVD
p32
sVcolistin
p33
VCST
p34
sVsulfamethoxazole
p35
VSMX
p36
sVsulfonamide
p37
VSUL
p38
sVgentamincin_b
p39
VGENB
p40
sVlividomycin B
p41
VLVDB
p42
sVarbekacin
p43
VABK
p44
sVlividomycin A
p45
VLVDA
p46
sVsulfadiazine
p47
VSDZ
p48
sVbeta_lactam
p49
VBLA
p50
sVnalidixic acid
p51
VNAL
p52
sVsulfadimidine
p53
VSDD
p54
sVtobramycin
p55
VTOB
p56
sVflorfenicol
p57
VFFC
p58
sVapramycin
p59
VAM
p60
sVgeneticin
p61
VG418
p62
sVgentamicin C
p63
VGENC
p64
sVgentamicin B
p65
VGENB
p66
sVsulfamethizole
p67
VSMZ
p68
sVdibekacin
p69
VDBK
p70
sVhygromycin B
p71
VHYG
p72
sVnetilmicin
p73
VNET
p74
sVspectinomycin
p75
VSPT
p76
sVoxacillin
p77
VOXA
p78
sVparomomycin
p79
VPRM
p80
sVsulfacetamide
p81
VSFA
p82
sVstreptomycin
p83
VSTR
p84
sVtetracycline
p85
VTET
p86
sVnorfloxacin
p87
VNOR
p88
sVnovobiocin
p89
VNVB
p90
sVsulfasalazine
p91
VSSZ
p92
sVhygromycin_b
p93
VHYG
p94
sVribostamycin
p95
VRSM
p96
sVerythromycin
p97
VERY
p98
sVbeta-lactam
p99
VBLA
p100
sVkanamycin
p101
VKAN
p102
sVsulfisoxazole
p103
VSIX
p104
sVsisomicin
p105
VSIS
p106
s.