(dp0
Vpenicillin
p1
VPEN
p2
sVpolymyxin
p3
VPMB
p4
sVamikacin
p5
VAMK
p6
sVtrimethoprim
p7
VTMP
p8
sVbacitracin
p9
VBAC
p10
sVchloramphenicol
p11
VCHL
p12
sVisepamicin
p13
VISP
p14
sVmafenide
p15
VMAF
p16
sVdiaminopyrimidine
p17
VDAP
p18
sVkanamycin A
p19
VKAN
p20
sVbutirosin
p21
VBUT
p22
sVsulfadoxine
p23
VSDX
p24
sVcloxacillin
p25
VCLX
p26
sVastromicin
p27
VASTM
p28
sVneomycin
p29
VNEO
p30
sVlividomycin
p31
VLVD
p32
sVcolistin
p33
VCST
p34
sVsulfamethoxazole
p35
VSMX
p36
sVsulfonamide
p37
VSUL
p38
sVlividomycin B
p39
VLVDB
p40
sVarbekacin
p41
VABK
p42
sVlividomycin A
p43
VLVDA
p44
sVsulfadiazine
p45
VSDZ
p46
sVnalidixic acid
p47
VNAL
p48
sVsulfadimidine
p49
VSDD
p50
sVtobramycin
p51
VTOB
p52
sVflorfenicol
p53
VFFC
p54
sVapramycin
p55
VAM
p56
sVgeneticin
p57
VG418
p58
sVgentamicin C
p59
VGENC
p60
sVgentamicin B
p61
VGENB
p62
sVsulfamethizole
p63
VSMZ
p64
sVdibekacin
p65
VDBK
p66
sVhygromycin B
p67
VHYG
p68
sVnetilmicin
p69
VNET
p70
sVspectinomycin
p71
VSPT
p72
sVoxacillin
p73
VOXA
p74
sVparomomycin
p75
VPRM
p76
sVsulfacetamide
p77
VSFA
p78
sVstreptomycin
p79
VSTR
p80
sVtetracycline
p81
VTET
p82
sVnorfloxacin
p83
VNOR
p84
sVnovobiocin
p85
VNVB
p86
sVsulfasalazine
p87
VSSZ
p88
sVribostamycin
p89
VRSM
p90
sVerythromycin
p91
VERY
p92
sVbeta-lactam
p93
VBLA
p94
sVsulfisoxazole
p95
VSIX
p96
sVsisomicin
p97
VSIS
p98
s.