(dp0
S'bl1_pse'
p1
(dp2
S'resist'
p3
(lp4
S'cephalosporin'
p5
asS'db'
p6
S'ardb'
p7
sS'name'
p8
g1
ssS'bl1_mox'
p9
(dp10
g3
(lp11
S'cephalosporin'
p12
aS'cephalosproin'
p13
asg6
g7
sg8
g9
ssS'bl2b_ula'
p14
(dp15
g3
(lp16
S'penicillin'
p17
aS'cephalosproin'
p18
asg6
g7
sg8
g14
ssS'smef'
p19
(dp20
g3
(lp21
S'fluoroquinolone'
p22
asS'member'
p23
(lp24
S'smed'
p25
aS'smee'
p26
asg6
g7
sS'requires'
p27
(lp28
S'smee'
p29
asg8
g19
ssS'smee'
p30
(dp31
g3
(lp32
S'fluoroquinolone'
p33
asg23
(lp34
S'smed'
p35
aS'smef'
p36
asg6
g7
sg27
(lp37
S'smef'
p38
asg8
g30
ssS'smed'
p39
(dp40
g3
(lp41
S'fluoroquinolone'
p42
asg23
(lp43
S'smee'
p44
aS'smef'
p45
asg6
g7
sg27
(lp46
S'smef'
p47
asg8
g39
ssS'smec'
p48
(dp49
g3
(lp50
S'fluoroquinolone'
p51
asg23
(lp52
S'smea'
p53
aS'smeb'
p54
asg6
g7
sg27
(lp55
S'smeb'
p56
asg8
g48
ssS'smeb'
p57
(dp58
g3
(lp59
S'fluoroquinolone'
p60
asg23
(lp61
S'smea'
p62
aS'smec'
p63
asg6
g7
sg27
(lp64
S'smec'
p65
asg8
g57
ssS'smea'
p66
(dp67
g3
(lp68
S'fluoroquinolone'
p69
asg23
(lp70
S'smeb'
p71
aS'smec'
p72
asg6
g7
sg27
(lp73
S'smec'
p74
asg8
g66
ssS'dfrb3'
p75
(dp76
g3
(lp77
S'trimethoprim'
p78
asg6
g7
sg8
g75
ssS'smeabc'
p79
(dp80
S'function'
p81
S'Resistance-nodulation-cell division transporter system. Multidrug resistance efflux pump.'
p82
sg6
g7
sg8
g79
ssS'vgbb'
p83
(dp84
g3
(lp85
S'streptogramin_b'
p86
asg6
g7
sg8
g83
ssS'vgba'
p87
(dp88
g3
(lp89
S'streptogramin_b'
p90
asg6
g7
sg8
g87
ssS'aac6i'
p91
(dp92
g3
(lp93
S'dibekacin'
p94
aS'amikacin'
p95
aS'isepamicin'
p96
aS'netilmicin'
p97
aS'sisomicin'
p98
aS'tobramycin'
p99
asg6
g7
sg8
g91
ssS'teha'
p100
(dp101
g3
(lp102
S'tellurite'
p103
asg6
g7
sg8
g100
ssS'otrb'
p104
(dp105
g3
(lp106
S'tetracycline'
p107
asg6
g7
sg8
g104
ssS'otra'
p108
(dp109
g3
(lp110
S'tetracycline'
p111
asg6
g7
sg8
g108
ssS'tehb'
p112
(dp113
g3
(lp114
S'tellurite'
p115
asg6
g7
sg8
g112
ssS'qacb'
p116
(dp117
g3
(lp118
S'qa_compound'
p119
asg23
(lp120
S'qaca'
p121
asg6
g7
sg27
(lp122
S'qaca'
p123
asg8
g116
ssS'qaca'
p124
(dp125
g3
(lp126
S'qa_compound'
p127
asg23
(lp128
S'qacb'
p129
asg6
g7
sg27
(lp130
S'qacb'
p131
asg8
g124
ssS'norm'
p132
(dp133
g3
(lp134
S'norfloxacin'
p135
aS'ciprofloxacin'
p136
aS'kanamycin'
p137
aS'streptomycin'
p138
aS'tigecycline'
p139
asg81
S'Multi antimicrobial extrusion (MATE) efflux family protein. Multidrug resistance efflux pump.'
p140
sg6
g7
sg8
g132
ssS'bl1_ceps'
p141
(dp142
g3
(lp143
S'cephalosporin'
p144
asg6
g7
sg8
g141
ssS'tet38'
p145
(dp146
g3
(lp147
S'tetracycline'
p148
asg6
g7
sg8
g145
ssS'mph'
p149
(dp150
g81
S'Macrolide phosphotransferase'
p151
sg6
g7
sg8
g149
ssS'ble'
p152
(dp153
g3
(lp154
S'bleomycin'
p155
asg81
S'Binding protein with a strong affinity to the bleomycin family of antibiotics, which confers resistance to these antibiotics by preventing the bleomycin-induced DNA breakage'
p156
sg6
g7
sg8
g152
ssS'mexab'
p157
(dp158
g81
S'Resistance-nodulation-cell division transporter system. Multidrug resistance efflux pump.'
p159
sg6
g7
sg8
g157
ssS'cml'
p160
(dp161
g81
S'Major facilitator superfamily transporter, chloramphenicol efflux pump.'
p162
sg6
g7
sg8
g160
ssS'pbp'
p163
(dp164
g81
S'The enzyme has a penicillin-insensitive transglycosylase N-terminal domain (formation of linear glycan strands) and a penicillin-sensitive transpeptidase C-terminal domain (cross-linking of the peptide subunits)'
p165
sg6
g7
sg8
g163
ssS'aph3iiia'
p166
(dp167
g3
(lp168
S'gentamincin_b'
p169
aS'amikacin'
p170
aS'butirosin'
p171
aS'isepamicin'
p172
aS'kanamycin'
p173
aS'lividomycin'
p174
aS'neomycin'
p175
aS'paromomycin'
p176
aS'ribostamycin'
p177
asg6
g7
sg8
g166
ssS'cata8'
p178
(dp179
g3
(lp180
S'chloramphenicol'
p181
asg6
g7
sg8
g178
ssS'cata9'
p182
(dp183
g3
(lp184
S'chloramphenicol'
p185
asg6
g7
sg8
g182
ssS'bl1_cmy2'
p186
(dp187
g3
(lp188
S'ceftazidime'
p189
aS'carbapenem'
p190
aS'cefoxitin'
p191
aS'ceftriaxone'
p192
aS'cephalosporin'
p193
aS'cephamycin'
p194
asg6
g7
sg8
g186
ssS'bl2e_cepa'
p195
(dp196
g3
(lp197
S'cephalosporin'
p198
aS'cephalosproin'
p199
asg6
g7
sg8
g195
ssS'cata3'
p200
(dp201
g3
(lp202
S'chloramphenicol'
p203
asg6
g7
sg8
g200
ssS'cata1'
p204
(dp205
g3
(lp206
S'chloramphenicol'
p207
asg6
g7
sg8
g204
ssS'cata6'
p208
(dp209
g3
(lp210
S'chloramphenicol'
p211
asg6
g7
sg8
g208
ssS'cata7'
p212
(dp213
g3
(lp214
S'chloramphenicol'
p215
asg6
g7
sg8
g212
ssS'cata4'
p216
(dp217
g3
(lp218
S'chloramphenicol'
p219
asg6
g7
sg8
g216
ssS'bl1_cf'
p220
(dp221
g3
(lp222
S'cephalosporin'
p223
aS'cephalosproin'
p224
asg6
g7
sg8
g220
ssS'macab'
p225
(dp226
g81
S'Resistance-nodulation-cell division transporter system. Multidrug resistance efflux pump. Macrolide-specific efflux system.'
p227
sg6
g7
sg8
g225
ssS'qnr'
p228
(dp229
g81
S'Pentapeptide repeat family, which protects DNA gyrase from the inhibition of quinolones.'
p230
sg6
g7
sg8
g228
ssS'ere'
p231
(dp232
g81
S'Erythromycin esterase, which can inactivate erythromycin by lactone ring cleavage.'
p233
sg6
g7
sg8
g231
ssS'sul'
p234
(dp235
g81
S'Sulfonamide-resistant dihydropteroate synthase, which can not be inhibited by sulfonamide.'
p236
sg6
g7
sg8
g234
ssS'aph33ib'
p237
(dp238
g3
(lp239
S'streptomycin'
p240
asg6
g7
sg8
g237
ssS'aph33ia'
p241
(dp242
g3
(lp243
S'streptomycin'
p244
asg6
g7
sg8
g241
ssS'tolc'
p245
(dp246
g3
(lp247
S'acriflavin'
p248
aS'aminoglycoside'
p249
aS'beta_lactam'
p250
aS'glycylcycline'
p251
aS'macrolide'
p252
asg23
(lp253
S'acra'
p254
aS'acrb'
p255
aS'maca'
p256
aS'macb'
p257
aS'mdtf'
p258
asg6
g7
sg27
(lp259
S'acrb'
p260
asg8
g245
ssS'mdtg'
p261
(dp262
g3
(lp263
S'fosfomycin'
p264
aS'deoxycholate'
p265
asg81
S'Major facilitator superfamily transporter. Multidrug resistance efflux pump.'
p266
sg6
g7
sg8
g261
ssS'bl2f_nmca'
p267
(dp268
g3
(lp269
S'penicillin'
p270
aS'carbapenem'
p271
aS'cephalosproin'
p272
asg6
g7
sg8
g267
ssS'adeabc'
p273
(dp274
g81
S'Resistance-nodulation-cell division transporter system. Multidrug resistance efflux pump.'
p275
sg6
g7
sg8
g273
ssS'mdfa'
p276
(dp277
g3
(lp278
S'neomycin'
p279
asg6
g7
sg8
g276
ssS'aph'
p280
(dp281
g81
S'Aminoglycoside O-phosphotransferase, which modifies aminoglycosides by phosphorylation.'
p282
sg6
g7
sg8
g280
ssS'bl3_vim'
p283
(dp284
g3
(lp285
S'penicillin'
p286
aS'carbapenem'
p287
aS'cephalosporin'
p288
aS'cephamycin'
p289
asg6
g7
sg8
g283
ssS'bl2b_ohio1'
p290
(dp291
g3
(lp292
S'penicillin'
p293
aS'cephalosproin'
p294
asg6
g7
sg8
g290
ssS'cara'
p295
(dp296
g3
(lp297
S'macrolide'
p298
aS'lincosamide'
p299
aS'streptogramin_b'
p300
asg6
g7
sg8
g295
ssS'dfra19'
p301
(dp302
g3
(lp303
S'trimethoprim'
p304
asg6
g7
sg8
g301
ssS'dfra14'
p305
(dp306
g3
(lp307
S'trimethoprim'
p308
asg6
g7
sg8
g305
ssS'dfra15'
p309
(dp310
g3
(lp311
S'trimethoprim'
p312
asg6
g7
sg8
g309
ssS'dfra16'
p313
(dp314
g3
(lp315
S'trimethoprim'
p316
asg6
g7
sg8
g313
ssS'dfra17'
p317
(dp318
g3
(lp319
S'trimethoprim'
p320
asg6
g7
sg8
g317
ssS'dfra10'
p321
(dp322
g3
(lp323
S'trimethoprim'
p324
asg6
g7
sg8
g321
ssS'dfra12'
p325
(dp326
g3
(lp327
S'trimethoprim'
p328
asg6
g7
sg8
g325
ssS'dfra13'
p329
(dp330
g3
(lp331
S'trimethoprim'
p332
asg6
g7
sg8
g329
ssS'vanhb'
p333
(dp334
g3
(lp335
S'vancomycin'
p336
asg23
(lp337
S'vanb'
p338
aS'vanrb'
p339
aS'vansb'
p340
aS'vanwb'
p341
aS'vanxb'
p342
aS'vanyb'
p343
asg6
g7
sg27
(lp344
S'vanwb'
p345
asg8
g333
ssS'vanha'
p346
(dp347
g3
(lp348
S'teicoplanin'
p349
aS'vancomycin'
p350
asg23
(lp351
S'vana'
p352
aS'vanra'
p353
aS'vansa'
p354
aS'vanxa'
p355
aS'vanya'
p356
asg6
g7
sg27
(lp357
S'vansa'
p358
asg8
g346
ssS'vanhd'
p359
(dp360
g3
(lp361
S'teicoplanin'
p362
aS'vancomycin'
p363
asg23
(lp364
S'vand'
p365
aS'vanrd'
p366
aS'vansd'
p367
aS'vanxd'
p368
aS'vanyd'
p369
asg6
g7
sg27
(lp370
S'vansd'
p371
asg8
g359
ssS'mls_mfs'
p372
(dp373
g81
S'Major facilitator superfamily transporter, Macrolide-Lincosamide-Streptogramin B efflux pump.'
p374
sg6
g7
sg8
g372
ssS'aac2i'
p375
(dp376
g3
(lp377
S'gentamicin'
p378
aS'6_n_netilmicin'
p379
aS'dibekacin'
p380
aS'netilmicin'
p381
aS'tobramycin'
p382
asg6
g7
sg8
g375
ssS'bl2d_oxa10'
p383
(dp384
g3
(lp385
S'penicillin'
p386
aS'cloxacillin'
p387
asg6
g7
sg8
g383
ssS'bcrc'
p388
(dp389
g3
(lp390
S'bacitracin'
p391
asg23
(lp392
S'bcra'
p393
asg6
g7
sg27
(lp394
S'bcra'
p395
asg8
g388
ssS'bcra'
p396
(dp397
g3
(lp398
S'bacitracin'
p399
asg23
(lp400
S'bcrc'
p401
asg6
g7
sg27
(lp402
S'bcrc'
p403
asg8
g396
ssS'bl2_veb'
p404
(dp405
g3
(lp406
S'penicillin'
p407
aS'cephalosporin'
p408
asg6
g7
sg8
g404
ssS'bl2d_moxa'
p409
(dp410
g3
(lp411
S'penicillin'
p412
aS'cloxacillin'
p413
asg6
g7
sg8
g409
ssS'bl1_och'
p414
(dp415
g3
(lp416
S'cephalosporin'
p417
asg6
g7
sg8
g414
ssS'vph'
p418
(dp419
g3
(lp420
S'viomycin'
p421
asg81
S'Viomycin phosphotransferase, which chieves inactivation of their antibiotic substrates by phosphorylation.'
p422
sg6
g7
sg8
g418
ssS'mexef'
p423
(dp424
g81
S'Resistance-nodulation-cell division transporter system. Multidrug resistance efflux pump.'
p425
sg6
g7
sg8
g423
ssS'bl3_l'
p426
(dp427
g3
(lp428
S'penicillin'
p429
aS'carbapenem'
p430
aS'cephalosproin'
p431
aS'cephamycin'
p432
asg6
g7
sg8
g426
ssS'mdtp'
p433
(dp434
g3
(lp435
S'puromycin'
p436
aS'acriflavine'
p437
aS't_chloride'
p438
asg23
(lp439
S'mdtn'
p440
aS'mdto'
p441
asg6
g7
sg27
(lp442
S'mdto'
p443
asg8
g433
ssS'bl1_asba'
p444
(dp445
g3
(lp446
S'cephalosporin'
p447
aS'cephalosproin'
p448
asg6
g7
sg8
g444
ssS'amra'
p449
(dp450
g3
(lp451
S'acriflavine'
p452
aS'aminoglycoside'
p453
aS'macrolide'
p454
asg23
(lp455
S'amrb'
p456
aS'opra'
p457
asg6
g7
sg27
(lp458
S'opra'
p459
asg8
g449
ssS'amrb'
p460
(dp461
g3
(lp462
S'acriflavine'
p463
aS'aminoglycoside'
p464
aS'macrolide'
p465
asg23
(lp466
S'amra'
p467
aS'opra'
p468
asg6
g7
sg27
(lp469
S'opra'
p470
asg8
g460
ssS'bl1_pao'
p471
(dp472
g3
(lp473
S'cephalosporin'
p474
aS'cephalosproin'
p475
asg6
g7
sg8
g471
ssS'oleb'
p476
(dp477
g3
(lp478
S'macrolide'
p479
aS'lincosamide'
p480
aS'streptogramin_b'
p481
asg6
g7
sg8
g476
ssS'mdtf'
p482
(dp483
g3
(lp484
S'erythromycin'
p485
aS'doxorubicin'
p486
asg23
(lp487
S'mdte'
p488
aS'tolc'
p489
asg6
g7
sg27
(lp490
S'tolc'
p491
asg8
g482
ssS'mdte'
p492
(dp493
g3
(lp494
S'erythromycin'
p495
aS'doxorubicin'
p496
asg23
(lp497
S'mdtf'
p498
asg6
g7
sg27
(lp499
S'tolc'
p500
asg8
g492
ssS'mdtk'
p501
(dp502
g3
(lp503
S'norfloxacin'
p504
aS'enoxacin'
p505
asg81
S'Major facilitator superfamily transporter. Multidrug resistance efflux pump.'
p506
sg6
g7
sg8
g501
ssS'erm'
p507
(dp508
g81
S'rRNA adenine N-6-methyltransferase, which can methylate adenine at position 2058 of 23S rRNA, conferring resistance to erythromycin.'
p509
sg6
g7
sg8
g507
ssS'mdth'
p510
(dp511
g3
(lp512
S'fosfomycin'
p513
aS'deoxycholate'
p514
asg81
S'Major facilitator superfamily transporter. Multidrug resistance efflux pump.'
p515
sg6
g7
sg8
g510
ssS'mdto'
p516
(dp517
g3
(lp518
S'puromycin'
p519
aS'acriflavine'
p520
aS't_chloride'
p521
asg23
(lp522
S'mdtn'
p523
aS'mdtp'
p524
asg6
g7
sg27
(lp525
S'mdtp'
p526
asg8
g516
ssS'mdtn'
p527
(dp528
g3
(lp529
S'puromycin'
p530
aS'acriflavine'
p531
aS't_chloride'
p532
asg23
(lp533
S'mdto'
p534
aS'mdtp'
p535
asg6
g7
sg27
(lp536
S'mdtp'
p537
asg8
g527
ssS'mdtm'
p538
(dp539
g3
(lp540
S'norfloxacin'
p541
aS'acriflavine'
p542
aS'chloramphenicol'
p543
asg81
S'Major facilitator superfamily transporter. Multidrug resistance efflux pump.'
p544
sg6
g7
sg8
g538
ssS'mdtl'
p545
(dp546
g3
(lp547
S'chloramphenicol'
p548
asg81
S'Major facilitator superfamily transporter. Multidrug resistance efflux pump.'
p549
sg6
g7
sg8
g545
ssS'bl2_kpc'
p550
(dp551
g3
(lp552
S'penicillin'
p553
aS'carbapenem'
p554
aS'cephalosporin'
p555
aS'cephamycin'
p556
asg6
g7
sg8
g550
ssS'bcr'
p557
(dp558
g81
S'ABC transporter system, bacitracin efflux pump.'
p559
sg6
g7
sg8
g557
ssS'bl2d_oxa9'
p560
(dp561
g3
(lp562
S'penicillin'
p563
aS'cloxacillin'
p564
asg6
g7
sg8
g560
ssS'bl3_cpha'
p565
(dp566
g3
(lp567
S'penicillin'
p568
aS'carbapenem'
p569
aS'cephalosporin'
p570
aS'cephamycin'
p571
asg6
g7
sg8
g565
ssS'bl2d_oxa1'
p572
(dp573
g3
(lp574
S'penicillin'
p575
aS'cloxacillin'
p576
asg6
g7
sg8
g572
ssS'bl2d_oxa2'
p577
(dp578
g3
(lp579
S'penicillin'
p580
aS'cloxacillin'
p581
asg6
g7
sg8
g577
ssS'dfra1'
p582
(dp583
g3
(lp584
S'trimethoprim'
p585
asg6
g7
sg8
g582
ssS'bl3_imp'
p586
(dp587
g3
(lp588
S'penicillin'
p589
aS'carbapenem'
p590
aS'cephalosproin'
p591
aS'cephamycin'
p592
asg6
g7
sg8
g586
ssS'dfra5'
p593
(dp594
g3
(lp595
S'trimethoprim'
p596
asg6
g7
sg8
g593
ssS'pur8'
p597
(dp598
g3
(lp599
S'puromycin'
p600
asg6
g7
sg8
g597
ssS'lsa'
p601
(dp602
g3
(lp603
S'macrolide'
p604
aS'lincosamide'
p605
aS'streptogramin_b'
p606
asg81
S'ABC efflux family that is resistant to MLS antibiotics'
p607
sg6
g7
sg8
g601
ssS'bl2a_nps'
p608
(dp609
g3
(lp610
S'penicillin'
p611
asg6
g7
sg8
g608
ssS'pbp1a'
p612
(dp613
g3
(lp614
S'penicillin'
p615
asg6
g7
sg8
g612
ssS'pbp1b'
p616
(dp617
g3
(lp618
S'penicillin'
p619
asg6
g7
sg8
g616
ssS'bl2b_tle'
p620
(dp621
g3
(lp622
S'penicillin'
p623
aS'cephalosproin'
p624
asg6
g7
sg8
g620
ssS'bl2a_iii2'
p625
(dp626
g3
(lp627
S'penicillin'
p628
asg6
g7
sg8
g625
ssS'emrd'
p629
(dp630
g81
S'Multidrug resistance efflux pump.'
p631
sg23
(lp632
S'emre'
p633
asg6
g7
sg27
(lp634
S'emre'
p635
asg8
g629
ssS'emre'
p636
(dp637
g81
S'Multidrug resistance efflux pump.'
p638
sg3
(lp639
S'aminoglycoside'
p640
asg8
g636
sg6
g7
sg23
(lp641
S'emrd'
p642
asg27
(lp643
S'emrd'
p644
assS'aac3vii'
p645
(dp646
g3
(lp647
S'paromomycin'
p648
asg6
g7
sg8
g645
ssS'ceo'
p649
(dp650
g81
S'Resistance-nodulation-cell division transporter system. Multidrug resistance efflux pump.'
p651
sg6
g7
sg8
g649
ssS'bl3_cit'
p652
(dp653
g3
(lp654
S'penicillin'
p655
aS'carbapenem'
p656
aS'cephalosporin'
p657
aS'cephamycin'
p658
asg6
g7
sg8
g652
ssS'bl2b_tem'
p659
(dp660
g3
(lp661
S'penicillin'
p662
aS'cephalosporin'
p663
asg6
g7
sg8
g659
ssS'vantg'
p664
(dp665
g3
(lp666
S'vancomycin'
p667
asg23
(lp668
S'vang'
p669
aS'vanrg'
p670
aS'vansg'
p671
aS'vanug'
p672
aS'vanwg'
p673
aS'vanxyg'
p674
aS'vanyg'
p675
asg6
g7
sg27
(lp676
S'vanug'
p677
asg8
g664
ssS'bl3_sim'
p678
(dp679
g3
(lp680
S'penicillin'
p681
aS'carbapenem'
p682
aS'cephalosporin'
p683
aS'cephamycin'
p684
asg6
g7
sg8
g678
ssS'vante'
p685
(dp686
g3
(lp687
S'vancomycin'
p688
asg23
(lp689
S'vane'
p690
aS'vanre'
p691
aS'vanse'
p692
aS'vanxye'
p693
asg6
g7
sg27
(lp694
S'vanse'
p695
asg8
g685
ssS'vanya'
p696
(dp697
g3
(lp698
S'teicoplanin'
p699
aS'vancomycin'
p700
asg23
(lp701
S'vana'
p702
aS'vanha'
p703
aS'vanra'
p704
aS'vansa'
p705
aS'vanxa'
p706
asg6
g7
sg27
(lp707
S'vansa'
p708
asg8
g696
ssS'vanyb'
p709
(dp710
g3
(lp711
S'vancomycin'
p712
asg23
(lp713
S'vanb'
p714
aS'vanhb'
p715
aS'vanrb'
p716
aS'vansb'
p717
aS'vanwb'
p718
aS'vanxb'
p719
asg6
g7
sg27
(lp720
S'vanwb'
p721
asg8
g709
ssS'vanyd'
p722
(dp723
g3
(lp724
S'teicoplanin'
p725
aS'vancomycin'
p726
asg23
(lp727
S'vand'
p728
aS'vanhd'
p729
aS'vanrd'
p730
aS'vansd'
p731
aS'vanxd'
p732
asg6
g7
sg27
(lp733
S'vansd'
p734
asg8
g722
ssS'vanyg'
p735
(dp736
g3
(lp737
S'vancomycin'
p738
asg23
(lp739
S'vang'
p740
aS'vanrg'
p741
aS'vansg'
p742
aS'vantg'
p743
aS'vanug'
p744
aS'vanwg'
p745
aS'vanxyg'
p746
asg6
g7
sg27
(lp747
S'vanug'
p748
asg8
g735
ssS'aph4ib'
p749
(dp750
g3
(lp751
S'hygromycin_b'
p752
asg6
g7
sg8
g749
ssS'aph4ia'
p753
(dp754
g3
(lp755
S'hygromycin_b'
p756
asg6
g7
sg8
g753
ssS'bl2_ges'
p757
(dp758
g3
(lp759
S'penicillin'
p760
aS'cephalosporin'
p761
asg6
g7
sg8
g757
ssS'blt'
p762
(dp763
g3
(lp764
S'puromycin'
p765
aS'chloramphenicol'
p766
aS'doxorubicin'
p767
aS'fluoroquinolone'
p768
asg81
S'Major facilitator superfamily transporter. Multidrug resistance efflux pump.'
p769
sg6
g7
sg8
g762
ssS'bl2d_r39'
p770
(dp771
g3
(lp772
S'penicillin'
p773
aS'cloxacillin'
p774
asg6
g7
sg8
g770
ssS'ksga'
p775
(dp776
g3
(lp777
S'kasugamycin'
p778
asg81
S"Specifically dimethylates two adjacent adenosines in the loop of a conserved hairpin near the 3'-end of 16S rRNA in the 30S particle. Its inactivation leads to kasugamycin resistance."
p779
sg6
g7
sg8
g775
ssS'aad9ib'
p780
(dp781
g3
(lp782
S'spectomycin'
p783
aS'streptomycin'
p784
asg6
g7
sg8
g780
ssS'bl2a_okp'
p785
(dp786
g3
(lp787
S'penicillin'
p788
asg6
g7
sg8
g785
ssS'catb5'
p789
(dp790
g3
(lp791
S'chloramphenicol'
p792
asg6
g7
sg8
g789
ssS'catb4'
p793
(dp794
g3
(lp795
S'chloramphenicol'
p796
asg6
g7
sg8
g793
ssS'catb3'
p797
(dp798
g3
(lp799
S'chloramphenicol'
p800
asg6
g7
sg8
g797
ssS'catb2'
p801
(dp802
g3
(lp803
S'chloramphenicol'
p804
asg6
g7
sg8
g801
ssS'catb1'
p805
(dp806
g3
(lp807
S'chloramphenicol'
p808
asg6
g7
sg8
g805
ssS'cata'
p809
(dp810
g81
S'Group A chloramphenicol acetyltransferase, which can inactivate chloramphenicol.'
p811
sg6
g7
sg8
g809
ssS'aac3vi'
p812
(dp813
g3
(lp814
S'gentamicin'
p815
aS'sisomicin'
p816
asg6
g7
sg8
g812
ssS'catb'
p817
(dp818
g81
S'Group B chloramphenicol acetyltransferase, which can inactivate chloramphenicol. Also referred to as xenobiotic acetyltransferase.'
p819
sg6
g7
sg8
g817
ssS'bl3_bc'
p820
(dp821
g3
(lp822
S'penicillin'
p823
aS'carbapenem'
p824
aS'cephalosproin'
p825
aS'cephamycin'
p826
asg6
g7
sg8
g820
ssS'tet_mod'
p827
(dp828
g81
S'NADP-requiring oxidoreductase, an enzyme that can modify tetracycline. Mechanism detail unknown.'
p829
sg6
g7
sg8
g827
ssS'vgab'
p830
(dp831
g3
(lp832
S'streptogramin_a'
p833
asg6
g7
sg8
g830
ssS'vgaa'
p834
(dp835
g3
(lp836
S'streptogramin_a'
p837
asg6
g7
sg8
g834
ssS'mecr1'
p838
(dp839
g3
(lp840
S'methicillin'
p841
asg81
S'Methicillin-resistance regulatory protein for mecA'
p842
sg6
g7
sg8
g838
ssS'tet40'
p843
(dp844
g3
(lp845
S'tetracycline'
p846
asg6
g7
sg8
g843
ssS'tet41'
p847
(dp848
g3
(lp849
S'tetracycline'
p850
asg6
g7
sg8
g847
ssS'bl3_ccra'
p851
(dp852
g3
(lp853
S'penicillin'
p854
aS'carbapenem'
p855
aS'cephalosproin'
p856
aS'cephamycin'
p857
asg6
g7
sg8
g851
ssS'dfra7'
p858
(dp859
g3
(lp860
S'trimethoprim'
p861
asg6
g7
sg8
g858
ssS'aph3iva'
p862
(dp863
g3
(lp864
S'ribostamycin'
p865
aS'butirosin'
p866
aS'kanamycin'
p867
aS'neomycin'
p868
aS'paromomycin'
p869
asg6
g7
sg8
g862
ssS'ant9ia'
p870
(dp871
g3
(lp872
S'spectinomycin'
p873
asg6
g7
sg8
g870
ssS'bl2e_cbla'
p874
(dp875
g3
(lp876
S'cephalosporin'
p877
aS'cephalosproin'
p878
asg6
g7
sg8
g874
ssS'sta'
p879
(dp880
g3
(lp881
S'streptothricin'
p882
asg81
S'Streptothricin acetyltransferase (STAT).'
p883
sg6
g7
sg8
g879
ssS'aac'
p884
(dp885
g81
S'Aminoglycoside N-acetyltransferase, which modifies aminoglycosides by acetylation.'
p886
sg6
g7
sg8
g884
ssS'msra'
p887
(dp888
g3
(lp889
S'macrolide'
p890
aS'lincosamide'
p891
aS'streptogramin_b'
p892
asg6
g7
sg8
g887
ssS'aac3iii'
p893
(dp894
g3
(lp895
S'lividomycin'
p896
aS'dibekacin'
p897
aS'gentamicin'
p898
aS'kanamycin'
p899
aS'neomycin'
p900
aS'paromomycin'
p901
aS'sisomicin'
p902
aS'tobramycin'
p903
asg6
g7
sg8
g893
ssS'str'
p904
(dp905
g3
(lp906
S'streptomycin'
p907
asg81
S'Streptomycin resistance protein.'
p908
sg6
g7
sg8
g904
ssS'tet_xprt'
p909
(dp910
g81
S'Xanthine-guanine phosphoribosyltransferase. Mechanism detail unknown.'
p911
sg6
g7
sg8
g909
ssS'aac3iia'
p912
(dp913
g3
(lp914
S'gentamicin'
p915
aS'dibekacin'
p916
aS'netilmicin'
p917
aS'sisomicin'
p918
aS'tobramycin'
p919
asg6
g7
sg8
g912
ssS'tet_u5'
p920
(dp921
S'resist'
p922
(lp923
S'tetracycline'
p924
asS'db'
p925
S'ardb'
p926
sS'name'
p927
g920
ssS'aac3iib'
p928
(dp929
g3
(lp930
S'gentamicin'
p931
aS'dibekacin'
p932
aS'netilmicin'
p933
aS'sisomicin'
p934
aS'tobramycin'
p935
asg6
g7
sg8
g928
ssS'tlrc'
p936
(dp937
g3
(lp938
S'macrolide'
p939
aS'lincosamide'
p940
aS'streptogramin_b'
p941
asg6
g7
sg8
g936
ssS'emea'
p942
(dp943
g3
(lp944
S'fluoroquinolone'
p945
asg81
S'Major facilitator superfamily transporter. Multidrug resistance efflux pump.'
p946
sg6
g7
sg8
g942
ssS'ant'
p947
(dp948
g81
S'Aminoglycoside O-nucleotidylyltransferase, which modifies aminoglycosides by adenylylation.'
p949
sg6
g7
sg8
g947
ssS'cata2'
p950
(dp951
g3
(lp952
S'chloramphenicol'
p953
asg6
g7
sg8
g950
ssS'tet_u1'
p954
(dp955
g922
(lp956
S'tetracycline'
p957
asg925
g926
sg927
g954
ssS'tet_other'
p958
(dp959
g81
S'Tetracycline resistance other mechanisms.'
p960
sg6
g7
sg8
g958
ssS'tet'
p961
(dp962
g3
(lp963
S'tetracycline'
p964
asg6
g7
sg8
g961
ssS'ant4iia'
p965
(dp966
g3
(lp967
S'amikacin'
p968
aS'isepamicin'
p969
aS'tobramycin'
p970
asg6
g7
sg8
g965
ssS'mexhi'
p971
(dp972
g81
S'Resistance-nodulation-cell division transporter system. Multidrug resistance efflux pump.'
p973
sg6
g7
sg8
g971
ssS'cata5'
p974
(dp975
g3
(lp976
S'chloramphenicol'
p977
asg6
g7
sg8
g974
ssS'mexcd'
p978
(dp979
g81
S'Resistance-nodulation-cell division transporter system. Multidrug resistance efflux pump.'
p980
sg6
g7
sg8
g978
ssS'sul1'
p981
(dp982
g3
(lp983
S'sulfonamide'
p984
asg6
g7
sg8
g981
ssS'sul2'
p985
(dp986
g3
(lp987
S'sulfonamide'
p988
asg6
g7
sg8
g985
ssS'sul3'
p989
(dp990
g3
(lp991
S'sulfonamide'
p992
asg6
g7
sg8
g989
ssS'aph6id'
p993
(dp994
g3
(lp995
S'streptomycin'
p996
asg6
g7
sg8
g993
ssS'macb'
p997
(dp998
g3
(lp999
S'macrolide'
p1000
asg23
(lp1001
S'maca'
p1002
aS'tolc'
p1003
asg6
g7
sg27
(lp1004
S'tolc'
p1005
asg8
g997
ssS'maca'
p1006
(dp1007
g3
(lp1008
S'macrolide'
p1009
asg23
(lp1010
S'macb'
p1011
aS'tolc'
p1012
asg6
g7
sg27
(lp1013
S'tolc'
p1014
asg8
g1006
ssS'aph6ic'
p1015
(dp1016
g3
(lp1017
S'streptomycin'
p1018
asg6
g7
sg8
g1015
ssS'tcr3'
p1019
(dp1020
g3
(lp1021
S'tetracycline'
p1022
asg6
g7
sg8
g1019
ssS'pbp2b'
p1023
(dp1024
g3
(lp1025
S'penicillin'
p1026
asg6
g7
sg8
g1023
ssS'vanxye'
p1027
(dp1028
g3
(lp1029
S'vancomycin'
p1030
asg23
(lp1031
S'vane'
p1032
aS'vanre'
p1033
aS'vanse'
p1034
aS'vante'
p1035
asg6
g7
sg27
(lp1036
S'vanse'
p1037
asg8
g1027
ssS'vanxyg'
p1038
(dp1039
g3
(lp1040
S'vancomycin'
p1041
asg23
(lp1042
S'vang'
p1043
aS'vanrg'
p1044
aS'vansg'
p1045
aS'vantg'
p1046
aS'vanug'
p1047
aS'vanwg'
p1048
aS'vanyg'
p1049
asg6
g7
sg27
(lp1050
S'vanug'
p1051
asg8
g1038
ssS'pbp2x'
p1052
(dp1053
g3
(lp1054
S'penicillin'
p1055
asg6
g7
sg8
g1052
ssS'bl2d_lcr1'
p1056
(dp1057
g3
(lp1058
S'penicillin'
p1059
aS'cloxacillin'
p1060
asg6
g7
sg8
g1056
ssS'vanxyc'
p1061
(dp1062
g3
(lp1063
S'vancomycin'
p1064
asg23
(lp1065
S'vanc'
p1066
aS'vanrc'
p1067
aS'vansc'
p1068
aS'vant'
p1069
asg6
g7
sg27
(lp1070
S'vansc'
p1071
asg8
g1061
ssS'dfrb6'
p1072
(dp1073
g3
(lp1074
S'trimethoprim'
p1075
asg6
g7
sg8
g1072
ssS'mls_hdr'
p1076
(dp1077
g81
S'Streptogramin B Lyase, which can deactivate the target drug by hydrolysis.'
p1078
sg6
g7
sg8
g1076
ssS'bl2be_ctxm'
p1079
(dp1080
g3
(lp1081
S'cephalosporin_i'
p1082
aS'ceftazidime'
p1083
aS'cephalosporin_ii'
p1084
aS'cephalosporin_iii'
p1085
aS'monobactam'
p1086
aS'penicillin'
p1087
asg6
g7
sg8
g1079
ssS'dfrb2'
p1088
(dp1089
g3
(lp1090
S'trimethoprim'
p1091
asg6
g7
sg8
g1088
ssS'dfrb1'
p1092
(dp1093
g3
(lp1094
S'trimethoprim'
p1095
asg6
g7
sg8
g1092
ssS'bl1_ec'
p1096
(dp1097
g3
(lp1098
S'cephalosporin'
p1099
aS'cephalosproin'
p1100
asg6
g7
sg8
g1096
ssS'bl2_len'
p1101
(dp1102
g3
(lp1103
S'penicillin'
p1104
asg6
g7
sg8
g1101
ssS'vanwb'
p1105
(dp1106
g3
(lp1107
S'vancomycin'
p1108
asg23
(lp1109
S'vanb'
p1110
aS'vanhb'
p1111
aS'vanrb'
p1112
aS'vansb'
p1113
aS'vanxb'
p1114
aS'vanyb'
p1115
asg6
g7
sg27
(lp1116
S'vansb'
p1117
asg8
g1105
ssS'tetx'
p1118
(dp1119
g3
(lp1120
S'tetracycline'
p1121
asg6
g7
sg8
g1118
ssS'vanwg'
p1122
(dp1123
g3
(lp1124
S'vancomycin'
p1125
asg23
(lp1126
S'vang'
p1127
aS'vanrg'
p1128
aS'vansg'
p1129
aS'vantg'
p1130
aS'vanug'
p1131
aS'vanxyg'
p1132
aS'vanyg'
p1133
asg6
g7
sg27
(lp1134
S'vanug'
p1135
asg8
g1122
ssS'tet_rpp'
p1136
(dp1137
g81
S'Ribosomal protection protein, which protects ribosome from the translation inhibition of tetracycline.'
p1138
sg6
g7
sg8
g1136
ssS'aph3ic'
p1139
(dp1140
g3
(lp1141
S'gentamincin_b'
p1142
aS'kanamycin'
p1143
aS'lividomycin'
p1144
aS'neomycin'
p1145
aS'paromomycin'
p1146
aS'ribostamycin'
p1147
asg6
g7
sg8
g1139
ssS'bl3_shw'
p1148
(dp1149
g3
(lp1150
S'penicillin'
p1151
aS'carbapenem'
p1152
aS'cephalosporin'
p1153
aS'cephamycin'
p1154
asg6
g7
sg8
g1148
ssS'ant2ib'
p1155
(dp1156
g3
(lp1157
S'gentamicin'
p1158
aS'dibekacin'
p1159
aS'kanamycin'
p1160
aS'sisomicin'
p1161
aS'tobramycin'
p1162
asg6
g7
sg8
g1155
ssS'ant2ia'
p1163
(dp1164
g3
(lp1165
S'gentamicin'
p1166
aS'dibekacin'
p1167
aS'kanamycin'
p1168
aS'sisomicin'
p1169
aS'tobramycin'
p1170
asg6
g7
sg8
g1163
ssS'bl3_gim'
p1171
(dp1172
g3
(lp1173
S'penicillin'
p1174
aS'carbapenem'
p1175
aS'cephalosporin'
p1176
aS'cephamycin'
p1177
asg6
g7
sg8
g1171
ssS'tet_flavo'
p1178
(dp1179
g81
S'Flavoproteins. Mechanism detail unknown. Only one such protein found in oral metagenome.'
p1180
sg6
g7
sg8
g1178
ssS'qacab'
p1181
(dp1182
g81
S'Multidrug efflux pump from bacterial pathogen staphylococcus aureus. Including QacA and QacB, both of which confer resistance to various toxic organic cations but differ in that QacB mediates lower levels of resistance to divalent cations. They differed by seven nucleotide subsititutions.'
p1183
sg6
g7
sg8
g1181
ssS'bl2f_sme1'
p1184
(dp1185
g3
(lp1186
S'penicillin'
p1187
aS'carbapenem'
p1188
aS'cephalosproin'
p1189
asg6
g7
sg8
g1184
ssS'mepa'
p1190
(dp1191
g3
(lp1192
S'tigecycline'
p1193
asg81
S'Multi antimicrobial extrusion (MATE) efflux family protein. Multidrug resistance efflux pump.'
p1194
sg6
g7
sg8
g1190
ssS'aac6ia'
p1195
(dp1196
g3
(lp1197
S'dibekacin'
p1198
aS'amikacin'
p1199
aS'isepamicin'
p1200
aS'netilmicin'
p1201
aS'sisomicin'
p1202
aS'tobramycin'
p1203
asg6
g7
sg8
g1195
ssS'aac6ib'
p1204
(dp1205
g3
(lp1206
S'dibekacin'
p1207
aS'amikacin'
p1208
aS'isepamicin'
p1209
aS'netilmicin'
p1210
aS'sisomicin'
p1211
aS'tobramycin'
p1212
asg6
g7
sg8
g1204
ssS'aac6ic'
p1213
(dp1214
g3
(lp1215
S'dibekacin'
p1216
aS'amikacin'
p1217
aS'isepamicin'
p1218
aS'netilmicin'
p1219
aS'sisomicin'
p1220
aS'tobramycin'
p1221
asg6
g7
sg8
g1213
ssS'aac6ie'
p1222
(dp1223
g3
(lp1224
S'dibekacin'
p1225
aS'amikacin'
p1226
aS'isepamicin'
p1227
aS'netilmicin'
p1228
aS'sisomicin'
p1229
aS'tobramycin'
p1230
asg6
g7
sg8
g1222
ssS'aac6if'
p1231
(dp1232
g3
(lp1233
S'dibekacin'
p1234
aS'amikacin'
p1235
aS'isepamicin'
p1236
aS'netilmicin'
p1237
aS'sisomicin'
p1238
aS'tobramycin'
p1239
asg6
g7
sg8
g1231
ssS'aac6ig'
p1240
(dp1241
g3
(lp1242
S'dibekacin'
p1243
aS'amikacin'
p1244
aS'isepamicin'
p1245
aS'netilmicin'
p1246
aS'sisomicin'
p1247
aS'tobramycin'
p1248
asg6
g7
sg8
g1240
ssS'lnu'
p1249
(dp1250
g81
S'Lincosamide nucleotidyltransferase.'
p1251
sg6
g7
sg8
g1249
ssS'fosa'
p1252
(dp1253
g3
(lp1254
S'fosfomycin'
p1255
asg6
g7
sg8
g1252
ssS'fosb'
p1256
(dp1257
g3
(lp1258
S'fosfomycin'
p1259
asg6
g7
sg8
g1256
ssS'fosc'
p1260
(dp1261
g3
(lp1262
S'fosfomycin'
p1263
asg6
g7
sg8
g1260
ssS'fosx'
p1264
(dp1265
g3
(lp1266
S'fosfomycin'
p1267
asg6
g7
sg8
g1264
ssS'mfpa'
p1268
(dp1269
g3
(lp1270
S'fluoroquinolone'
p1271
asg81
S'Pentapeptide repeat family, which protects DNA gyrase from the inhibition of quinolones.'
p1272
sg6
g7
sg8
g1268
ssS'ykkd'
p1273
(dp1274
g3
(lp1275
S'na_antimicrobials'
p1276
asg23
(lp1277
S'ykkc'
p1278
asg6
g7
sg27
(lp1279
S'ykkc'
p1280
asg8
g1273
ssS'bl1_sm'
p1281
(dp1282
g3
(lp1283
S'cephalosporin'
p1284
aS'cephalosproin'
p1285
asg6
g7
sg8
g1281
ssS'ykkc'
p1286
(dp1287
g3
(lp1288
S'na_antimicrobials'
p1289
asg23
(lp1290
S'ykkd'
p1291
asg6
g7
sg27
(lp1292
S'ykkd'
p1293
asg8
g1286
ssS'pmra'
p1294
(dp1295
g3
(lp1296
S'norfloxacin'
p1297
aS'ciprofloxacin'
p1298
asg81
S'Major facilitator superfamily transporter. Multidrug resistance efflux pump.'
p1299
sg6
g7
sg8
g1294
ssS'bl2c_pse1'
p1300
(dp1301
g3
(lp1302
S'penicillin'
p1303
aS'carbenicillin'
p1304
asg6
g7
sg8
g1300
ssS'ereb'
p1305
(dp1306
g3
(lp1307
S'erythromycin'
p1308
asg6
g7
sg8
g1305
ssS'erea'
p1309
(dp1310
g3
(lp1311
S'erythromycin'
p1312
asg6
g7
sg8
g1309
ssS'mdtef'
p1313
(dp1314
g81
S'Resistance-nodulation-cell division transporter system. Multidrug resistance efflux pump.'
p1315
sg6
g7
sg8
g1313
ssS'aph3va'
p1316
(dp1317
g3
(lp1318
S'ribostamycin'
p1319
aS'neomycin'
p1320
aS'paromomycin'
p1321
asg6
g7
sg8
g1316
ssS'aph3vb'
p1322
(dp1323
g3
(lp1324
S'ribostamycin'
p1325
aS'neomycin'
p1326
aS'paromomycin'
p1327
asg6
g7
sg8
g1322
ssS'mefa'
p1328
(dp1329
g3
(lp1330
S'macrolide'
p1331
asg6
g7
sg8
g1328
ssS'dfra'
p1332
(dp1333
g81
S'Group A drug-insensitive dihydrofolate reductase, which can not be inhibited by trimethoprim.'
p1334
sg6
g7
sg8
g1332
ssS'dfrb'
p1335
(dp1336
g81
S'Group B drug-insensitive R67 dihydrofolate reductase, which can not be inhibited by trimethoprim.'
p1337
sg6
g7
sg8
g1335
ssS'bl2b_rob'
p1338
(dp1339
g3
(lp1340
S'penicillin'
p1341
aS'cephalosproin'
p1342
asg6
g7
sg8
g1338
ssS'lmrb'
p1343
(dp1344
g3
(lp1345
S'lincomycin'
p1346
asg6
g7
sg8
g1343
ssS'lmra'
p1347
(dp1348
g3
(lp1349
S'lincomycin'
p1350
asg6
g7
sg8
g1347
ssS'bla_c'
p1351
(dp1352
g81
S"Class C beta-lactamase. This enzyme breaks the beta-lactam antibiotic ring open and deactivates the molecule's antibacterial properites."
p1353
sg6
g7
sg8
g1351
ssS'bla_b'
p1354
(dp1355
g81
S"Class B beta-lactamase. This enzyme breaks the beta-lactam antibiotic ring open and deactivates the molecule's antibacterial properites."
p1356
sg6
g7
sg8
g1354
ssS'bla_a'
p1357
(dp1358
g81
S"Class A beta-lactamase. This enzyme breaks the beta-lactam antibiotic ring open and deactivates the molecule's antibacterial properites."
p1359
sg6
g7
sg8
g1357
ssS'bl2a_pc'
p1360
(dp1361
g3
(lp1362
S'penicillin'
p1363
asg6
g7
sg8
g1360
ssS'bla_d'
p1364
(dp1365
g81
S"Class D beta-lactamase. This enzyme breaks the beta-lactam antibiotic ring open and deactivates the molecule's antibacterial properites."
p1366
sg6
g7
sg8
g1364
ssS'acrb'
p1367
(dp1368
g3
(lp1369
S'acriflavin'
p1370
aS'aminoglycoside'
p1371
aS'beta_lactam'
p1372
aS'glycylcycline'
p1373
aS'macrolide'
p1374
asg23
(lp1375
S'acra'
p1376
aS'tolc'
p1377
asg6
g7
sg27
(lp1378
S'tolc'
p1379
asg8
g1367
ssS'vanse'
p1380
(dp1381
g3
(lp1382
S'vancomycin'
p1383
asg23
(lp1384
S'vane'
p1385
aS'vanre'
p1386
aS'vante'
p1387
aS'vanxye'
p1388
asg6
g7
sg27
(lp1389
S'vanre'
p1390
asg8
g1380
ssS'acra'
p1391
(dp1392
g3
(lp1393
S'acriflavin'
p1394
aS'aminoglycoside'
p1395
aS'beta_lactam'
p1396
aS'glycylcycline'
p1397
aS'macrolide'
p1398
asg23
(lp1399
S'acrb'
p1400
aS'tolc'
p1401
asg6
g7
sg27
(lp1402
S'tolc'
p1403
asg8
g1391
ssS'vansc'
p1404
(dp1405
g3
(lp1406
S'vancomycin'
p1407
asg23
(lp1408
S'vanc'
p1409
aS'vanrc'
p1410
aS'vant'
p1411
aS'vanxyc'
p1412
asg6
g7
sg27
(lp1413
S'vanrc'
p1414
asg8
g1404
ssS'vansb'
p1415
(dp1416
g3
(lp1417
S'vancomycin'
p1418
asg23
(lp1419
S'vanb'
p1420
aS'vanhb'
p1421
aS'vanrb'
p1422
aS'vanwb'
p1423
aS'vanxb'
p1424
aS'vanyb'
p1425
asg6
g7
sg27
(lp1426
S'vanwb'
p1427
asg8
g1415
ssS'cml_e8'
p1428
(dp1429
g3
(lp1430
S'chloramphenicol'
p1431
asg6
g7
sg8
g1428
ssS'cml_e6'
p1432
(dp1433
g3
(lp1434
S'chloramphenicol'
p1435
asg6
g7
sg8
g1432
ssS'cml_e7'
p1436
(dp1437
g3
(lp1438
S'chloramphenicol'
p1439
asg6
g7
sg8
g1436
ssS'cml_e4'
p1440
(dp1441
g3
(lp1442
S'chloramphenicol'
p1443
asg6
g7
sg8
g1440
ssS'cml_e5'
p1444
(dp1445
g3
(lp1446
S'chloramphenicol'
p1447
asg6
g7
sg8
g1444
ssS'cml_e2'
p1448
(dp1449
g3
(lp1450
S'chloramphenicol'
p1451
asg6
g7
sg8
g1448
ssS'cml_e3'
p1452
(dp1453
g3
(lp1454
S'chloramphenicol'
p1455
asg6
g7
sg8
g1452
ssS'cml_e1'
p1456
(dp1457
g3
(lp1458
S'chloramphenicol'
p1459
asg6
g7
sg8
g1456
ssS'vanxb'
p1460
(dp1461
g3
(lp1462
S'vancomycin'
p1463
asg23
(lp1464
S'vanb'
p1465
aS'vanhb'
p1466
aS'vanrb'
p1467
aS'vansb'
p1468
aS'vanwb'
p1469
aS'vanyb'
p1470
asg6
g7
sg27
(lp1471
S'vanwb'
p1472
asg8
g1460
ssS'bl2be_men'
p1473
(dp1474
g3
(lp1475
S'penicillin'
p1476
aS'e_cephalosproin'
p1477
aS'monobactam'
p1478
aS'n_cephalosproin'
p1479
asg6
g7
sg8
g1473
ssS'vant'
p1480
(dp1481
g3
(lp1482
S'vancomycin'
p1483
asg23
(lp1484
S'vanc'
p1485
aS'vanrc'
p1486
aS'vansc'
p1487
aS'vanxyc'
p1488
asg6
g7
sg27
(lp1489
S'vansc'
p1490
asg8
g1480
ssS'vanxd'
p1491
(dp1492
g3
(lp1493
S'teicoplanin'
p1494
aS'vancomycin'
p1495
asg23
(lp1496
S'vand'
p1497
aS'vanhd'
p1498
aS'vanrd'
p1499
aS'vansd'
p1500
aS'vanyd'
p1501
asg6
g7
sg27
(lp1502
S'vansd'
p1503
asg8
g1491
ssS'vanz'
p1504
(dp1505
g3
(lp1506
S'teicoplanin'
p1507
asg81
S'VanZ confers low-level VanZ confers low-level resistance to the glycopeptide antibiotic teicoplanin.'
p1508
sg6
g7
sg8
g1504
ssS'bmr'
p1509
(dp1510
g3
(lp1511
S'fluoroquinolone'
p1512
aS'chloramphenicol'
p1513
asg81
S'Major facilitator superfamily transporter. Multidrug resistance efflux pump.'
p1514
sg6
g7
sg8
g1509
ssS'vanc'
p1515
(dp1516
g81
S'VanC type vancomycin resistance operon genes, which can synthesize peptidoglycan with modified C-terminal D-Ala-D-Ala to D-alanine--D-serine.'
p1517
sg3
(lp1518
S'vancomycin'
p1519
asg8
g1515
sg6
g7
sg23
(lp1520
S'vanrc'
p1521
aS'vansc'
p1522
aS'vant'
p1523
aS'vanxyc'
p1524
asg27
(lp1525
S'vansc'
p1526
assS'vanb'
p1527
(dp1528
g81
S'VanB type vancomycin resistance operon genes, which can synthesize peptidoglycan with modified C-terminal D-Ala-D-Ala to D-alanine--D-lactate.'
p1529
sg3
(lp1530
S'vancomycin'
p1531
asg8
g1527
sg6
g7
sg23
(lp1532
S'vanhb'
p1533
aS'vanrb'
p1534
aS'vansb'
p1535
aS'vanwb'
p1536
aS'vanxb'
p1537
aS'vanyb'
p1538
asg27
(lp1539
S'vanwb'
p1540
assS'vane'
p1541
(dp1542
g81
S'VanE type vancomycin resistance operon genes, which can synthesize peptidoglycan with modified C-terminal D-Ala-D-Ala to D-alanine--D-serine.'
p1543
sg3
(lp1544
S'vancomycin'
p1545
asg8
g1541
sg6
g7
sg23
(lp1546
S'vanre'
p1547
aS'vanse'
p1548
aS'vante'
p1549
aS'vanxye'
p1550
asg27
(lp1551
S'vanse'
p1552
assS'vand'
p1553
(dp1554
g81
S'VanD type vancomycin resistance operon genes, which can synthesize peptidoglycan with modified C-terminal D-Ala-D-Ala to D-alanine--D-lactate.'
p1555
sg3
(lp1556
S'teicoplanin'
p1557
aS'vancomycin'
p1558
asg8
g1553
sg6
g7
sg23
(lp1559
S'vanhd'
p1560
aS'vanrd'
p1561
aS'vansd'
p1562
aS'vanxd'
p1563
aS'vanyd'
p1564
asg27
(lp1565
S'vansd'
p1566
assS'vang'
p1567
(dp1568
g81
S'VanG type vancomycin resistance operon genes, which can synthesize peptidoglycan with modified C-terminal D-Ala-D-Ala to D-alanine--D-serine.'
p1569
sg3
(lp1570
S'vancomycin'
p1571
asg8
g1567
sg6
g7
sg23
(lp1572
S'vanrg'
p1573
aS'vansg'
p1574
aS'vantg'
p1575
aS'vanug'
p1576
aS'vanwg'
p1577
aS'vanxyg'
p1578
aS'vanyg'
p1579
asg27
(lp1580
S'vanug'
p1581
assS'tsnr'
p1582
(dp1583
g3
(lp1584
S'thiostrepton'
p1585
asg81
S'Specifically methylates the adenosine-1067 in 23S ribosomal RNA. Confers resistance to antibiotic thiostrepton.'
p1586
sg6
g7
sg8
g1582
ssS'tetpb'
p1587
(dp1588
g3
(lp1589
S'tetracycline'
p1590
asg6
g7
sg8
g1587
ssS'tetpa'
p1591
(dp1592
g3
(lp1593
S'tetracycline'
p1594
asg6
g7
sg8
g1591
ssS'bl2a_iii'
p1595
(dp1596
g3
(lp1597
S'penicillin'
p1598
asg6
g7
sg8
g1595
ssS'cata14'
p1599
(dp1600
g3
(lp1601
S'chloramphenicol'
p1602
asg6
g7
sg8
g1599
ssS'cata15'
p1603
(dp1604
g3
(lp1605
S'chloramphenicol'
p1606
asg6
g7
sg8
g1603
ssS'cata16'
p1607
(dp1608
g3
(lp1609
S'chloramphenicol'
p1610
asg6
g7
sg8
g1607
ssS'cata10'
p1611
(dp1612
g3
(lp1613
S'chloramphenicol'
p1614
asg6
g7
sg8
g1611
ssS'cata11'
p1615
(dp1616
g3
(lp1617
S'chloramphenicol'
p1618
asg6
g7
sg8
g1615
ssS'cata12'
p1619
(dp1620
g3
(lp1621
S'chloramphenicol'
p1622
asg6
g7
sg8
g1619
ssS'cata13'
p1623
(dp1624
g3
(lp1625
S'chloramphenicol'
p1626
asg6
g7
sg8
g1623
ssS'tet_efflux'
p1627
(dp1628
g81
S'Major facilitator superfamily transporter, tetracycline efflux pump.'
p1629
sg6
g7
sg8
g1627
ssS'rif'
p1630
(dp1631
g3
(lp1632
S'rifampin'
p1633
asg6
g7
sg8
g1630
ssS'bl2e_cfxa'
p1634
(dp1635
g3
(lp1636
S'cephalosporin'
p1637
aS'cephalosproin'
p1638
asg6
g7
sg8
g1634
ssS'pac'
p1639
(dp1640
g3
(lp1641
S'puromycin'
p1642
asg6
g7
sg8
g1639
ssS'qac'
p1643
(dp1644
g3
(lp1645
S'qa_compound'
p1646
asg81
S'Small Multidrug Resistance (SMR) protein family. Multidrug resistance efflux pump, which consists of two proteins.'
p1647
sg6
g7
sg8
g1643
ssS'oprm'
p1648
(dp1649
g3
(lp1650
S'tetracycline'
p1651
aS'aminoglycoside'
p1652
aS'beta_lactam'
p1653
aS'fluoroquinolone'
p1654
aS'tigecycline'
p1655
asg23
(lp1656
S'mexa'
p1657
aS'mexb'
p1658
aS'mexj'
p1659
aS'mexk'
p1660
aS'mexv'
p1661
aS'mexw'
p1662
aS'mexx'
p1663
aS'mexy'
p1664
asg6
g7
sg27
(lp1665
S'mexy'
p1666
asg8
g1648
ssS'bl2a_exo'
p1667
(dp1668
g3
(lp1669
S'penicillin'
p1670
asg6
g7
sg8
g1667
ssS'fusb'
p1671
(dp1672
g3
(lp1673
S'fusaric_acid'
p1674
asg81
S'Involved in the resistance (detoxification) of the fungal toxin fusaric acid.'
p1675
sg6
g7
sg8
g1671
ssS'bl2c_bro'
p1676
(dp1677
g3
(lp1678
S'penicillin'
p1679
aS'carbenicillin'
p1680
asg6
g7
sg8
g1676
ssS'fush'
p1681
(dp1682
g3
(lp1683
S'fusidic_acid'
p1684
asg81
S'Esterase enzyme inactivating fusidic acid'
p1685
sg6
g7
sg8
g1681
ssS'tet_u6'
p1686
(dp1687
g922
(lp1688
S'tetracycline'
p1689
asg925
g926
sg927
g1686
ssS'meca'
p1690
(dp1691
g3
(lp1692
S'beta_lactam'
p1693
asg81
S'Penicillin binding protein, which has a low affinity for beta-lactams and catalyze a penicillin-insensitive transpeptidation.'
p1694
sg6
g7
sg8
g1690
ssS'tet_u4'
p1695
(dp1696
g922
(lp1697
S'tetracycline'
p1698
asg925
g926
sg927
g1695
ssS'tet_u3'
p1699
(dp1700
g922
(lp1701
S'tetracycline'
p1702
asg925
g926
sg927
g1699
ssS'tet_u2'
p1703
(dp1704
g922
(lp1705
S'tetracycline'
p1706
asg925
g926
sg927
g1703
ssS'opmd'
p1707
(dp1708
g27
(lp1709
S'mexi'
p1710
asg6
g7
sg8
g1707
ssS'bl2be_shv2'
p1711
(dp1712
g3
(lp1713
S'penicillin'
p1714
aS'e_cephalosproin'
p1715
aS'monobactam'
p1716
aS'n_cephalosproin'
p1717
asg6
g7
sg8
g1711
ssS'srmb'
p1718
(dp1719
g3
(lp1720
S'macrolide'
p1721
aS'lincosamide'
p1722
aS'streptogramin_b'
p1723
asg6
g7
sg8
g1718
ssS'mls_abc'
p1724
(dp1725
g81
S'ABC transporter system, Macrolide-Lincosamide-Streptogramin B efflux pump.'
p1726
sg6
g7
sg8
g1724
ssS'ant3ia'
p1727
(dp1728
g3
(lp1729
S'streptomycin'
p1730
aS'spectinomycin'
p1731
asg6
g7
sg8
g1727
ssS'lnua'
p1732
(dp1733
g3
(lp1734
S'lincomycin'
p1735
asg6
g7
sg8
g1732
ssS'lnub'
p1736
(dp1737
g3
(lp1738
S'lincomycin'
p1739
asg6
g7
sg8
g1736
ssS'aph3iia'
p1740
(dp1741
g3
(lp1742
S'gentamincin_b'
p1743
aS'butirosin'
p1744
aS'kanamycin'
p1745
aS'neomycin'
p1746
aS'paromomycin'
p1747
aS'ribostamycin'
p1748
asg6
g7
sg8
g1740
ssS'tetk'
p1749
(dp1750
g3
(lp1751
S'tetracycline'
p1752
asg6
g7
sg8
g1749
ssS'ant6ia'
p1753
(dp1754
g3
(lp1755
S'streptomycin'
p1756
asg6
g7
sg8
g1753
ssS'rosa'
p1757
(dp1758
g3
(lp1759
S'fosmidomycin'
p1760
asg23
(lp1761
S'rosb'
p1762
asg6
g7
sg27
(lp1763
S'rosb'
p1764
asg8
g1757
ssS'rosb'
p1765
(dp1766
g3
(lp1767
S'fosmidomycin'
p1768
asg23
(lp1769
S'rosa'
p1770
asg6
g7
sg27
(lp1771
S'rosa'
p1772
asg8
g1765
ssS'mexvw'
p1773
(dp1774
g81
S'Resistance-nodulation-cell division transporter system. Multidrug resistance efflux pump.'
p1775
sg6
g7
sg8
g1773
ssS'mphc'
p1776
(dp1777
g3
(lp1778
S'macrolide'
p1779
asg6
g7
sg8
g1776
ssS'mphb'
p1780
(dp1781
g3
(lp1782
S'macrolide'
p1783
asg6
g7
sg8
g1780
ssS'mpha'
p1784
(dp1785
g3
(lp1786
S'macrolide'
p1787
asg6
g7
sg8
g1784
ssS'tmrb'
p1788
(dp1789
g3
(lp1790
S'tunicamycin'
p1791
asg6
g7
sg8
g1788
ssS'tcma'
p1792
(dp1793
g3
(lp1794
S'tetracenomycin_c'
p1795
asg81
S'Major facilitator superfamily transporter. Resistance to tetracenomycin C by an active tetracenomycin C efflux system which is probably energized by transmembrane electrochemical gradients.'
p1796
sg6
g7
sg8
g1792
ssS'amr'
p1797
(dp1798
g81
S'Resistance-nodulation-cell division transporter system. Multidrug resistance efflux pump.'
p1799
sg6
g7
sg8
g1797
ssS'oprj'
p1800
(dp1801
g3
(lp1802
S'erythromycin'
p1803
aS'fluoroquinolone'
p1804
aS'glycylcycline'
p1805
aS'roxithromycin'
p1806
asg23
(lp1807
S'mexc'
p1808
aS'mexd'
p1809
asg6
g7
sg27
(lp1810
S'mexd'
p1811
asg8
g1800
ssS'oprn'
p1812
(dp1813
g3
(lp1814
S'fluoroquinolone'
p1815
aS'chloramphenicol'
p1816
asg23
(lp1817
S'mexe'
p1818
aS'mexf'
p1819
asg6
g7
sg27
(lp1820
S'mexf'
p1821
asg8
g1812
ssS'mexx'
p1822
(dp1823
g3
(lp1824
S'glycylcycline'
p1825
aS'aminoglycoside'
p1826
asg23
(lp1827
S'mexy'
p1828
aS'oprm'
p1829
asg6
g7
sg27
(lp1830
S'oprm'
p1831
asg8
g1822
ssS'mexy'
p1832
(dp1833
g3
(lp1834
S'glycylcycline'
p1835
aS'aminoglycoside'
p1836
asg23
(lp1837
S'mexx'
p1838
aS'oprm'
p1839
asg6
g7
sg27
(lp1840
S'oprm'
p1841
asg8
g1832
ssS'mexv'
p1842
(dp1843
g23
(lp1844
S'mexw'
p1845
aS'oprm'
p1846
asg27
(lp1847
S'oprm'
p1848
asg6
g7
sg8
g1842
ssS'mexw'
p1849
(dp1850
g23
(lp1851
S'mexv'
p1852
aS'oprm'
p1853
asg27
(lp1854
S'oprm'
p1855
asg6
g7
sg8
g1849
ssS'opra'
p1856
(dp1857
g3
(lp1858
S'acriflavine'
p1859
aS'aminoglycoside'
p1860
aS'macrolide'
p1861
asg23
(lp1862
S'amra'
p1863
aS'amrb'
p1864
asg6
g7
sg27
(lp1865
S'amrb'
p1866
asg8
g1856
ssS'oprd'
p1867
(dp1868
g23
(lp1869
S'mexh'
p1870
aS'mexi'
p1871
asg925
g926
sg927
g1867
ssS'mexj'
p1872
(dp1873
g23
(lp1874
S'mexk'
p1875
aS'oprm'
p1876
asg27
(lp1877
S'oprm'
p1878
asg6
g7
sg8
g1872
ssS'mexk'
p1879
(dp1880
g23
(lp1881
S'mexj'
p1882
aS'oprm'
p1883
asg27
(lp1884
S'oprm'
p1885
asg6
g7
sg8
g1879
ssS'mexh'
p1886
(dp1887
g23
(lp1888
S'mexi'
p1889
ag1867
asg27
(lp1890
S'opmd'
p1891
asg6
g7
sg8
g1886
ssS'mexi'
p1892
(dp1893
g23
(lp1894
S'mexh'
p1895
aS'oprd'
p1896
asg27
(lp1897
S'opmd'
p1898
asg6
g7
sg8
g1892
ssS'mexf'
p1899
(dp1900
g3
(lp1901
S'fluoroquinolone'
p1902
aS'chloramphenicol'
p1903
asg23
(lp1904
S'mexe'
p1905
aS'oprn'
p1906
asg6
g7
sg27
(lp1907
S'oprn'
p1908
asg8
g1899
ssS'mexd'
p1909
(dp1910
g3
(lp1911
S'erythromycin'
p1912
aS'fluoroquinolone'
p1913
aS'glycylcycline'
p1914
aS'roxithromycin'
p1915
asg23
(lp1916
S'mexc'
p1917
aS'oprj'
p1918
asg6
g7
sg27
(lp1919
S'oprj'
p1920
asg8
g1909
ssS'mexe'
p1921
(dp1922
g3
(lp1923
S'fluoroquinolone'
p1924
aS'chloramphenicol'
p1925
asg23
(lp1926
S'mexf'
p1927
aS'oprn'
p1928
asg6
g7
sg27
(lp1929
S'oprn'
p1930
asg8
g1921
ssS'mexb'
p1931
(dp1932
g3
(lp1933
S'tetracycline'
p1934
aS'aminoglycoside'
p1935
aS'beta_lactam'
p1936
aS'fluoroquinolone'
p1937
aS'tigecycline'
p1938
asg23
(lp1939
S'mexa'
p1940
aS'oprm'
p1941
asg6
g7
sg27
(lp1942
S'oprm'
p1943
asg8
g1931
ssS'mexc'
p1944
(dp1945
g3
(lp1946
S'erythromycin'
p1947
aS'fluoroquinolone'
p1948
aS'glycylcycline'
p1949
aS'roxithromycin'
p1950
asg23
(lp1951
S'mexd'
p1952
aS'oprj'
p1953
asg6
g7
sg27
(lp1954
S'oprj'
p1955
asg8
g1944
ssS'mexa'
p1956
(dp1957
g3
(lp1958
S'tetracycline'
p1959
aS'aminoglycoside'
p1960
aS'beta_lactam'
p1961
aS'fluoroquinolone'
p1962
aS'tigecycline'
p1963
asg23
(lp1964
S'mexb'
p1965
aS'oprm'
p1966
asg6
g7
sg27
(lp1967
S'oprm'
p1968
asg8
g1956
ssS'ermh'
p1969
(dp1970
g3
(lp1971
S'macrolide'
p1972
aS'lincosamide'
p1973
aS'streptogramin_b'
p1974
asg6
g7
sg8
g1969
ssS'ermn'
p1975
(dp1976
g3
(lp1977
S'macrolide'
p1978
aS'lincosamide'
p1979
aS'streptogramin_b'
p1980
asg6
g7
sg8
g1975
ssS'ermo'
p1981
(dp1982
g3
(lp1983
S'macrolide'
p1984
aS'lincosamide'
p1985
aS'streptogramin_b'
p1986
asg6
g7
sg8
g1981
ssS'baca'
p1987
(dp1988
g3
(lp1989
S'bacitracin'
p1990
asg81
S'Undecaprenyl pyrophosphate phosphatase, which consists in the sequestration of Undecaprenyl pyrophosphate.'
p1991
sg6
g7
sg8
g1987
ssS'ermb'
p1992
(dp1993
g3
(lp1994
S'macrolide'
p1995
aS'lincosamide'
p1996
aS'streptogramin_b'
p1997
asg6
g7
sg8
g1992
ssS'ermc'
p1998
(dp1999
g3
(lp2000
S'macrolide'
p2001
aS'lincosamide'
p2002
aS'streptogramin_b'
p2003
asg6
g7
sg8
g1998
ssS'erma'
p2004
(dp2005
g3
(lp2006
S'macrolide'
p2007
aS'lincosamide'
p2008
aS'streptogramin_b'
p2009
asg6
g7
sg8
g2004
ssS'ermf'
p2010
(dp2011
g3
(lp2012
S'macrolide'
p2013
aS'lincosamide'
p2014
aS'streptogramin_b'
p2015
asg6
g7
sg8
g2010
ssS'ermg'
p2016
(dp2017
g3
(lp2018
S'macrolide'
p2019
aS'lincosamide'
p2020
aS'streptogramin_b'
p2021
asg6
g7
sg8
g2016
ssS'ermd'
p2022
(dp2023
g3
(lp2024
S'macrolide'
p2025
aS'lincosamide'
p2026
aS'streptogramin_b'
p2027
asg6
g7
sg8
g2022
ssS'erme'
p2028
(dp2029
g3
(lp2030
S'macrolide'
p2031
aS'lincosamide'
p2032
aS'streptogramin_b'
p2033
asg6
g7
sg8
g2028
ssS'vatc'
p2034
(dp2035
g3
(lp2036
S'streptogramin_a'
p2037
asg6
g7
sg8
g2034
ssS'vatb'
p2038
(dp2039
g3
(lp2040
S'streptogramin_a'
p2041
asg6
g7
sg8
g2038
ssS'vata'
p2042
(dp2043
g3
(lp2044
S'streptogramin_a'
p2045
asg6
g7
sg8
g2042
ssS'ermy'
p2046
(dp2047
g3
(lp2048
S'macrolide'
p2049
aS'lincosamide'
p2050
aS'streptogramin_b'
p2051
asg6
g7
sg8
g2046
ssS'vate'
p2052
(dp2053
g3
(lp2054
S'streptogramin_a'
p2055
asg6
g7
sg8
g2052
ssS'vatd'
p2056
(dp2057
g3
(lp2058
S'streptogramin_a'
p2059
asg6
g7
sg8
g2056
ssS'ermr'
p2060
(dp2061
g3
(lp2062
S'macrolide'
p2063
aS'lincosamide'
p2064
aS'streptogramin_b'
p2065
asg6
g7
sg8
g2060
ssS'erms'
p2066
(dp2067
g3
(lp2068
S'macrolide'
p2069
aS'lincosamide'
p2070
aS'streptogramin_b'
p2071
asg6
g7
sg8
g2066
ssS'ermq'
p2072
(dp2073
g3
(lp2074
S'macrolide'
p2075
aS'lincosamide'
p2076
aS'streptogramin_b'
p2077
asg6
g7
sg8
g2072
ssS'ermv'
p2078
(dp2079
g3
(lp2080
S'macrolide'
p2081
aS'lincosamide'
p2082
aS'streptogramin_b'
p2083
asg6
g7
sg8
g2078
ssS'ermw'
p2084
(dp2085
g3
(lp2086
S'macrolide'
p2087
aS'lincosamide'
p2088
aS'streptogramin_b'
p2089
asg6
g7
sg8
g2084
ssS'ermt'
p2090
(dp2091
g3
(lp2092
S'macrolide'
p2093
aS'lincosamide'
p2094
aS'streptogramin_b'
p2095
asg6
g7
sg8
g2090
ssS'ermu'
p2096
(dp2097
g3
(lp2098
S'macrolide'
p2099
aS'lincosamide'
p2100
aS'streptogramin_b'
p2101
asg6
g7
sg8
g2096
ssS'tmr'
p2102
(dp2103
g81
S'Mechanism unknown.'
p2104
sg6
g7
sg8
g2102
ssS'fos'
p2105
(dp2106
g81
S'Glutathione transferase, metalloglutathione transferase which confers resistance to fosfomycin by catalyzing the addition of glutathione to fosfomycin'
p2107
sg6
g7
sg8
g2105
ssS'ykk'
p2108
(dp2109
g81
S'Small Multidrug Resistance (SMR) protein family. Multidrug resistance efflux pump, which consists of two proteins.'
p2110
sg6
g7
sg8
g2108
ssS'ceob'
p2111
(dp2112
g3
(lp2113
S'chloramphenicol'
p2114
asg23
(lp2115
S'ceoa'
p2116
aS'opcm'
p2117
asg6
g7
sg27
(lp2118
S'opcm'
p2119
asg8
g2111
ssS'tet39'
p2120
(dp2121
g3
(lp2122
S'tetracycline'
p2123
asg6
g7
sg8
g2120
ssS'bl2e_fpm'
p2124
(dp2125
g3
(lp2126
S'cephalosporin'
p2127
aS'cephalosproin'
p2128
asg6
g7
sg8
g2124
ssS'tet37'
p2129
(dp2130
g3
(lp2131
S'tetracycline'
p2132
asg6
g7
sg8
g2129
ssS'tet36'
p2133
(dp2134
g3
(lp2135
S'tetracycline'
p2136
asg6
g7
sg8
g2133
ssS'bl2d_oxa5'
p2137
(dp2138
g3
(lp2139
S'penicillin'
p2140
aS'cloxacillin'
p2141
asg6
g7
sg8
g2137
ssS'tet34'
p2142
(dp2143
g3
(lp2144
S'tetracycline'
p2145
asg6
g7
sg8
g2142
ssS'tet33'
p2146
(dp2147
g3
(lp2148
S'tetracycline'
p2149
asg6
g7
sg8
g2146
ssS'tet32'
p2150
(dp2151
g3
(lp2152
S'tetracycline'
p2153
asg6
g7
sg8
g2150
ssS'tet31'
p2154
(dp2155
g3
(lp2156
S'tetracycline'
p2157
asg6
g7
sg8
g2154
ssS'tet30'
p2158
(dp2159
g3
(lp2160
S'tetracycline'
p2161
asg6
g7
sg8
g2158
ssS'aadd'
p2162
(dp2163
g3
(lp2164
S'kanamycin'
p2165
aS'tobramycin'
p2166
asg6
g7
sg8
g2162
ssS'rosab'
p2167
(dp2168
g81
S'Efflux pump/potassium antiporter system. RosA: Major facilitator superfamily transporter. RosB: Potassium antiporter.'
p2169
sg6
g7
sg8
g2167
ssS'bl2a_kcc'
p2170
(dp2171
g3
(lp2172
S'penicillin'
p2173
asg6
g7
sg8
g2170
ssS'dfra21'
p2174
(dp2175
g3
(lp2176
S'trimethoprim'
p2177
asg6
g7
sg8
g2174
ssS'dfra20'
p2178
(dp2179
g3
(lp2180
S'trimethoprim'
p2181
asg6
g7
sg8
g2178
ssS'dfra23'
p2182
(dp2183
g3
(lp2184
S'trimethoprim'
p2185
asg6
g7
sg8
g2182
ssS'dfra22'
p2186
(dp2187
g3
(lp2188
S'trimethoprim'
p2189
asg6
g7
sg8
g2186
ssS'dfra25'
p2190
(dp2191
g3
(lp2192
S'trimethoprim'
p2193
asg6
g7
sg8
g2190
ssS'dfra24'
p2194
(dp2195
g3
(lp2196
S'trimethoprim'
p2197
asg6
g7
sg8
g2194
ssS'dfra26'
p2198
(dp2199
g3
(lp2200
S'trimethoprim'
p2201
asg6
g7
sg8
g2198
ssS'acr'
p2202
(dp2203
g81
S'Resistance-nodulation-cell division transporter system. Multidrug resistance efflux pump.'
p2204
sg6
g7
sg8
g2202
ssS'adea'
p2205
(dp2206
g3
(lp2207
S'fluoramphenicol'
p2208
aS'aminoglycoside'
p2209
asg23
(lp2210
S'adeb'
p2211
aS'adec'
p2212
asg6
g7
sg27
(lp2213
S'adec'
p2214
asg8
g2205
ssS'adeb'
p2215
(dp2216
g3
(lp2217
S'aminoglycoside'
p2218
aS'chloramphenicol'
p2219
asg23
(lp2220
S'adea'
p2221
aS'adec'
p2222
asg6
g7
sg27
(lp2223
S'adec'
p2224
asg8
g2215
ssS'adec'
p2225
(dp2226
g3
(lp2227
S'aminoglycoside'
p2228
aS'chloramphenicol'
p2229
asg23
(lp2230
S'adea'
p2231
aS'adeb'
p2232
asg6
g7
sg27
(lp2233
S'adeb'
p2234
asg8
g2225
ssS'smedef'
p2235
(dp2236
g81
S'Resistance-nodulation-cell division transporter system. Multidrug resistance efflux pump.'
p2237
sg6
g7
sg8
g2235
ssS'aph6ia'
p2238
(dp2239
g3
(lp2240
S'streptomycin'
p2241
asg6
g7
sg8
g2238
ssS'aph6ib'
p2242
(dp2243
g3
(lp2244
S'streptomycin'
p2245
asg6
g7
sg8
g2242
ssS'aac6iib'
p2246
(dp2247
g3
(lp2248
S'gentamicin'
p2249
aS'dibekacin'
p2250
aS'netilmicin'
p2251
aS'sisomicin'
p2252
aS'tobramycin'
p2253
asg6
g7
sg8
g2246
ssS'aac6iia'
p2254
(dp2255
g3
(lp2256
S'gentamicin'
p2257
aS'dibekacin'
p2258
aS'netilmicin'
p2259
aS'sisomicin'
p2260
aS'tobramycin'
p2261
asg6
g7
sg8
g2254
ssS'pbp2'
p2262
(dp2263
g3
(lp2264
S'penicillin'
p2265
asg6
g7
sg8
g2262
ssS'vansg'
p2266
(dp2267
g3
(lp2268
S'vancomycin'
p2269
asg23
(lp2270
S'vang'
p2271
aS'vanrg'
p2272
aS'vantg'
p2273
aS'vanug'
p2274
aS'vanwg'
p2275
aS'vanxyg'
p2276
aS'vanyg'
p2277
asg6
g7
sg27
(lp2278
S'vanug'
p2279
asg8
g2266
ssS'bl1_fox'
p2280
(dp2281
g3
(lp2282
S'cephalosporin'
p2283
aS'cephalosproin'
p2284
asg6
g7
sg8
g2280
ssS'vansd'
p2285
(dp2286
g3
(lp2287
S'teicoplanin'
p2288
aS'vancomycin'
p2289
asg23
(lp2290
S'vand'
p2291
aS'vanhd'
p2292
aS'vanrd'
p2293
aS'vanxd'
p2294
aS'vanyd'
p2295
asg6
g7
sg27
(lp2296
S'vanrd'
p2297
asg8
g2285
ssS'mdtnop'
p2298
(dp2299
g81
S'Resistance-nodulation-cell division transporter system. Multidrug resistance efflux pump.'
p2300
sg6
g7
sg8
g2298
ssS'vat'
p2301
(dp2302
g81
S'Virginiamycin A acetyltransferase, which can inactivate the target drug.'
p2303
sg6
g7
sg8
g2301
ssS'vansa'
p2304
(dp2305
g3
(lp2306
S'teicoplanin'
p2307
aS'vancomycin'
p2308
asg23
(lp2309
S'vana'
p2310
aS'vanha'
p2311
aS'vanra'
p2312
aS'vanxa'
p2313
aS'vanya'
p2314
asg6
g7
sg27
(lp2315
S'vanra'
p2316
asg8
g2304
ssS'aph3via'
p2317
(dp2318
g3
(lp2319
S'ribostamycin'
p2320
aS'amikacin'
p2321
aS'butirosin'
p2322
aS'gentamicin_b'
p2323
aS'isepamicin'
p2324
aS'kanamycin'
p2325
aS'neomycin'
p2326
aS'paromomycin'
p2327
asg6
g7
sg8
g2317
ssS'bl2e_y56'
p2328
(dp2329
g3
(lp2330
S'cephalosporin'
p2331
aS'cephalosproin'
p2332
asg6
g7
sg8
g2328
ssS'bl1_acc'
p2333
(dp2334
g3
(lp2335
S'cephalosporin'
p2336
aS'e_penicillin'
p2337
asg6
g7
sg8
g2333
ssS'aac2id'
p2338
(dp2339
g3
(lp2340
S'gentamicin'
p2341
aS'6_n_netilmicin'
p2342
aS'dibekacin'
p2343
aS'netilmicin'
p2344
aS'tobramycin'
p2345
asg6
g7
sg8
g2338
ssS'aph3ia'
p2346
(dp2347
g3
(lp2348
S'gentamincin_b'
p2349
aS'kanamycin'
p2350
aS'lividomycin'
p2351
aS'neomycin'
p2352
aS'paromomycin'
p2353
aS'ribostamycin'
p2354
asg6
g7
sg8
g2346
ssS'aac2ia'
p2355
(dp2356
g3
(lp2357
S'gentamicin'
p2358
aS'6_n_netilmicin'
p2359
aS'dibekacin'
p2360
aS'netilmicin'
p2361
aS'tobramycin'
p2362
asg6
g7
sg8
g2355
ssS'aac2ib'
p2363
(dp2364
g3
(lp2365
S'gentamicin'
p2366
aS'6_n_netilmicin'
p2367
aS'dibekacin'
p2368
aS'netilmicin'
p2369
aS'tobramycin'
p2370
asg6
g7
sg8
g2363
ssS'aph3ib'
p2371
(dp2372
g3
(lp2373
S'gentamincin_b'
p2374
aS'kanamycin'
p2375
aS'lividomycin'
p2376
aS'neomycin'
p2377
aS'paromomycin'
p2378
aS'ribostamycin'
p2379
asg6
g7
sg8
g2371
ssS'aac2ic'
p2380
(dp2381
g3
(lp2382
S'gentamicin'
p2383
aS'6_n_netilmicin'
p2384
aS'dibekacin'
p2385
aS'netilmicin'
p2386
aS'tobramycin'
p2387
asg6
g7
sg8
g2380
ssS'bl2be_per'
p2388
(dp2389
g3
(lp2390
S'penicillin'
p2391
aS'e_cephalosproin'
p2392
aS'monobactam'
p2393
aS'n_cephalosproin'
p2394
asg6
g7
sg8
g2388
ssS'bl2a_1'
p2395
(dp2396
g3
(lp2397
S'penicillin'
p2398
asg6
g7
sg8
g2395
ssS'aac3x'
p2399
(dp2400
g3
(lp2401
S'aminoglycoside'
p2402
asg6
g7
sg8
g2399
ssS'ermx'
p2403
(dp2404
g3
(lp2405
S'macrolide'
p2406
aS'lincosamide'
p2407
aS'streptogramin_b'
p2408
asg6
g7
sg8
g2403
ssS'bl2c_pse3'
p2409
(dp2410
g3
(lp2411
S'penicillin'
p2412
aS'carbenicillin'
p2413
asg6
g7
sg8
g2409
ssS'arna'
p2414
(dp2415
g3
(lp2416
S'polymyxin'
p2417
asg81
S'Bifunctional enzyme that catalyzes the oxidative decarboxylation of UDP-glucuronic acid (UDP-GlcUA) to UDP-4-keto-arabinose (UDP-Ara4O) and the addition of a formyl group to UDP-4-amino-4-deoxy-L-arabinose (UDP-L-Ara4N) to form UDP-L-4-formamido-arabinose (UDP-L-Ara4FN). The modified arabinose is attached to lipid A and is required for resistance to polymyxin and cationic antimicrobial peptides.'
p2418
sg6
g7
sg8
g2414
ssS'bl2b_tem1'
p2419
(dp2420
g3
(lp2421
S'cephalosporin_i'
p2422
aS'cephalosporin_ii'
p2423
aS'penicillin'
p2424
asg6
g7
sg8
g2419
ssS'tets'
p2425
(dp2426
g3
(lp2427
S'tetracycline'
p2428
asg6
g7
sg8
g2425
ssS'bl2be_oxy1'
p2429
(dp2430
g3
(lp2431
S'penicillin'
p2432
aS'monobactam'
p2433
asg6
g7
sg8
g2429
ssS'vanxa'
p2434
(dp2435
g3
(lp2436
S'teicoplanin'
p2437
aS'vancomycin'
p2438
asg23
(lp2439
S'vana'
p2440
aS'vanha'
p2441
aS'vanra'
p2442
aS'vansa'
p2443
aS'vanya'
p2444
asg6
g7
sg27
(lp2445
S'vansa'
p2446
asg8
g2434
ssS'opcm'
p2447
(dp2448
g3
(lp2449
S'chloramphenicol'
p2450
asg23
(lp2451
S'ceoa'
p2452
aS'ceob'
p2453
asg6
g7
sg27
(lp2454
S'ceob'
p2455
asg8
g2447
ssS'bl1_ampc'
p2456
(dp2457
g3
(lp2458
S'cephalosporin'
p2459
aS'cephalosproin'
p2460
asg6
g7
sg8
g2456
ssS'vanug'
p2461
(dp2462
g3
(lp2463
S'vancomycin'
p2464
asg23
(lp2465
S'vang'
p2466
aS'vanrg'
p2467
aS'vansg'
p2468
aS'vantg'
p2469
aS'vanwg'
p2470
aS'vanxyg'
p2471
aS'vanyg'
p2472
asg6
g7
sg27
(lp2473
S'vanwg'
p2474
asg8
g2461
ssS'aad9'
p2475
(dp2476
g3
(lp2477
S'spectomycin'
p2478
aS'streptomycin'
p2479
asg6
g7
sg8
g2475
ssS'teth'
p2480
(dp2481
g3
(lp2482
S'tetracycline'
p2483
asg6
g7
sg8
g2480
ssS'aac3viii'
p2484
(dp2485
g3
(lp2486
S'ribostamycin'
p2487
aS'neomycin'
p2488
asg6
g7
sg8
g2484
ssS'aph3viia'
p2489
(dp2490
g3
(lp2491
S'kanamycin'
p2492
aS'neomycin'
p2493
asg6
g7
sg8
g2489
ssS'tetj'
p2494
(dp2495
g3
(lp2496
S'tetracycline'
p2497
asg6
g7
sg8
g2494
ssS'tetm'
p2498
(dp2499
g3
(lp2500
S'tetracycline'
p2501
asg6
g7
sg8
g2498
ssS'tetl'
p2502
(dp2503
g3
(lp2504
S'tetracycline'
p2505
asg6
g7
sg8
g2502
ssS'ceoa'
p2506
(dp2507
g3
(lp2508
S'chloramphenicol'
p2509
asg23
(lp2510
S'ceob'
p2511
aS'opcm'
p2512
asg6
g7
sg27
(lp2513
S'opcm'
p2514
asg8
g2506
ssS'aac3iv'
p2515
(dp2516
g3
(lp2517
S'apramycin'
p2518
aS'dibekacin'
p2519
aS'gentamicin'
p2520
aS'netilmicin'
p2521
aS'sisomicin'
p2522
aS'tobramycin'
p2523
asg6
g7
sg8
g2515
ssS'aac3ix'
p2524
(dp2525
g3
(lp2526
S'neomycin'
p2527
asg6
g7
sg8
g2524
ssS'aac3ia'
p2528
(dp2529
g3
(lp2530
S'gentamicin'
p2531
aS'astromicin'
p2532
aS'sisomicin'
p2533
asg6
g7
sg8
g2528
ssS'teta'
p2534
(dp2535
g3
(lp2536
S'tetracycline'
p2537
asg6
g7
sg8
g2534
ssS'mexxy'
p2538
(dp2539
g81
S'Resistance-nodulation-cell division transporter system. Multidrug resistance efflux pump.'
p2540
sg6
g7
sg8
g2538
ssS'tety'
p2541
(dp2542
g3
(lp2543
S'tetracycline'
p2544
asg6
g7
sg8
g2541
ssS'vana'
p2545
(dp2546
g81
S'VanA type vancomycin resistance operon genes, which can synthesize peptidoglycan with modified C-terminal D-Ala-D-Ala to D-alanine--D-lactate.'
p2547
sg3
(lp2548
S'teicoplanin'
p2549
aS'vancomycin'
p2550
asg8
g2545
sg6
g7
sg23
(lp2551
S'vanha'
p2552
aS'vanra'
p2553
aS'vansa'
p2554
aS'vanxa'
p2555
aS'vanya'
p2556
asg27
(lp2557
S'vansa'
p2558
assS'bl2be_k'
p2559
(dp2560
g3
(lp2561
S'penicillin'
p2562
aS'e_cephalosproin'
p2563
aS'monobactam'
p2564
aS'n_cephalosproin'
p2565
asg6
g7
sg8
g2559
ssS'tetz'
p2566
(dp2567
g3
(lp2568
S'tetracycline'
p2569
asg6
g7
sg8
g2566
ssS'tetq'
p2570
(dp2571
g3
(lp2572
S'tetracycline'
p2573
asg6
g7
sg8
g2570
ssS'qnrb'
p2574
(dp2575
g3
(lp2576
S'fluoroquinolone'
p2577
asg6
g7
sg8
g2574
ssS'qnra'
p2578
(dp2579
g3
(lp2580
S'fluoroquinolone'
p2581
asg6
g7
sg8
g2578
ssS'bl2b_tem2'
p2582
(dp2583
g3
(lp2584
S'cephalosporin_i'
p2585
aS'cephalosporin_ii'
p2586
aS'penicillin'
p2587
asg6
g7
sg8
g2582
ssS'tetu'
p2588
(dp2589
g3
(lp2590
S'tetracycline'
p2591
asg6
g7
sg8
g2588
ssS'tett'
p2592
(dp2593
g3
(lp2594
S'tetracycline'
p2595
asg6
g7
sg8
g2592
ssS'tetw'
p2596
(dp2597
g3
(lp2598
S'tetracycline'
p2599
asg6
g7
sg8
g2596
ssS'tetv'
p2600
(dp2601
g3
(lp2602
S'tetracycline'
p2603
asg6
g7
sg8
g2600
ssS'vanra'
p2604
(dp2605
g3
(lp2606
S'teicoplanin'
p2607
aS'vancomycin'
p2608
asg23
(lp2609
S'vana'
p2610
aS'vanha'
p2611
aS'vansa'
p2612
aS'vanxa'
p2613
aS'vanya'
p2614
asg6
g7
sg27
(lp2615
S'vansa'
p2616
asg8
g2604
ssS'vanrb'
p2617
(dp2618
g3
(lp2619
S'vancomycin'
p2620
asg23
(lp2621
S'vanb'
p2622
aS'vanhb'
p2623
aS'vansb'
p2624
aS'vanwb'
p2625
aS'vanxb'
p2626
aS'vanyb'
p2627
asg6
g7
sg27
(lp2628
S'vanwb'
p2629
asg8
g2617
ssS'vanrc'
p2630
(dp2631
g3
(lp2632
S'vancomycin'
p2633
asg23
(lp2634
S'vanc'
p2635
aS'vansc'
p2636
aS'vant'
p2637
aS'vanxyc'
p2638
asg6
g7
sg27
(lp2639
S'vansc'
p2640
asg8
g2630
ssS'vanrd'
p2641
(dp2642
g3
(lp2643
S'teicoplanin'
p2644
aS'vancomycin'
p2645
asg23
(lp2646
S'vand'
p2647
aS'vanhd'
p2648
aS'vansd'
p2649
aS'vanxd'
p2650
aS'vanyd'
p2651
asg6
g7
sg27
(lp2652
S'vansd'
p2653
asg8
g2641
ssS'vanre'
p2654
(dp2655
g3
(lp2656
S'vancomycin'
p2657
asg23
(lp2658
S'vane'
p2659
aS'vanse'
p2660
aS'vante'
p2661
aS'vanxye'
p2662
asg6
g7
sg27
(lp2663
S'vanse'
p2664
asg8
g2654
ssS'teto'
p2665
(dp2666
g3
(lp2667
S'tetracycline'
p2668
asg6
g7
sg8
g2665
ssS'vanrg'
p2669
(dp2670
g3
(lp2671
S'vancomycin'
p2672
asg23
(lp2673
S'vang'
p2674
aS'vansg'
p2675
aS'vantg'
p2676
aS'vanug'
p2677
aS'vanwg'
p2678
aS'vanxyg'
p2679
aS'vanyg'
p2680
asg6
g7
sg27
(lp2681
S'vanug'
p2682
asg8
g2669
ssS'qnrs'
p2683
(dp2684
g3
(lp2685
S'fluoroquinolone'
p2686
asg6
g7
sg8
g2683
ssS'tetc'
p2687
(dp2688
g3
(lp2689
S'tetracycline'
p2690
asg6
g7
sg8
g2687
ssS'tetb'
p2691
(dp2692
g3
(lp2693
S'tetracycline'
p2694
asg6
g7
sg8
g2691
ssS'tete'
p2695
(dp2696
g3
(lp2697
S'tetracycline'
p2698
asg6
g7
sg8
g2695
ssS'tetd'
p2699
(dp2700
g3
(lp2701
S'tetracycline'
p2702
asg6
g7
sg8
g2699
ssS'tetg'
p2703
(dp2704
g3
(lp2705
S'tetracycline'
p2706
asg6
g7
sg8
g2703
ss.