(dp0
S'bl1_pse'
p1
(dp2
S'resist'
p3
(lp4
S'cephalosporin'
p5
asS'db'
p6
S'ardb'
p7
sS'name'
p8
g1
ssS'bl1_mox'
p9
(dp10
g3
(lp11
S'cephalosporin'
p12
asg6
g7
sg8
g9
ssS'bl2b_ula'
p13
(dp14
g3
(lp15
S'penicillin'
p16
asg6
g7
sg8
g13
ssS'smef'
p17
(dp18
g3
(lp19
S'fluoroquinolone'
p20
asS'requires'
p21
(lp22
S'smee'
p23
asg6
g7
sg8
g17
ssS'smee'
p24
(dp25
g3
(lp26
S'fluoroquinolone'
p27
asg21
(lp28
S'smef'
p29
asg6
g7
sg8
g24
ssS'smed'
p30
(dp31
g3
(lp32
S'fluoroquinolone'
p33
asg21
(lp34
S'smef'
p35
asg6
g7
sg8
g30
ssS'smec'
p36
(dp37
g3
(lp38
S'fluoroquinolone'
p39
asg21
(lp40
S'smeb'
p41
asg6
g7
sg8
g36
ssS'smeb'
p42
(dp43
g3
(lp44
S'fluoroquinolone'
p45
asg21
(lp46
S'smec'
p47
asg6
g7
sg8
g42
ssS'smea'
p48
(dp49
g3
(lp50
S'fluoroquinolone'
p51
asg21
(lp52
S'smec'
p53
asg6
g7
sg8
g48
ssS'dfrb3'
p54
(dp55
g3
(lp56
S'trimethoprim'
p57
asg6
g7
sg8
g54
ssS'smeabc'
p58
(dp59
S'function'
p60
S'Resistance-nodulation-cell division transporter system. Multidrug resistance efflux pump.'
p61
sg6
g7
sg8
g58
ssS'vgbb'
p62
(dp63
g3
(lp64
S'streptogramin_b'
p65
asg6
g7
sg8
g62
ssS'vgba'
p66
(dp67
g3
(lp68
S'streptogramin_b'
p69
asg6
g7
sg8
g66
ssS'aac6i'
p70
(dp71
g3
(lp72
S'dibekacin'
p73
asg6
g7
sg8
g70
ssS'teha'
p74
(dp75
g3
(lp76
S'tellurite'
p77
asg6
g7
sg8
g74
ssS'otrb'
p78
(dp79
g3
(lp80
S'tetracycline'
p81
asg6
g7
sg8
g78
ssS'otra'
p82
(dp83
g3
(lp84
S'tetracycline'
p85
asg6
g7
sg8
g82
ssS'tehb'
p86
(dp87
g3
(lp88
S'tellurite'
p89
asg6
g7
sg8
g86
ssS'qacb'
p90
(dp91
g3
(lp92
S'qa_compound'
p93
asg21
(lp94
S'qaca'
p95
asg6
g7
sg8
g90
ssS'qaca'
p96
(dp97
g3
(lp98
S'qa_compound'
p99
asg21
(lp100
S'qacb'
p101
asg6
g7
sg8
g96
ssS'norm'
p102
(dp103
g3
(lp104
S'norfloxacin'
p105
asg60
S'Multi antimicrobial extrusion (MATE) efflux family protein. Multidrug resistance efflux pump.'
p106
sg6
g7
sg8
g102
ssS'bl1_ceps'
p107
(dp108
g3
(lp109
S'cephalosporin'
p110
asg6
g7
sg8
g107
ssS'tet38'
p111
(dp112
g3
(lp113
S'tetracycline'
p114
asg6
g7
sg8
g111
ssS'mph'
p115
(dp116
g60
S'Macrolide phosphotransferase'
p117
sg6
g7
sg8
g115
ssS'ble'
p118
(dp119
g3
(lp120
S'bleomycin'
p121
asg60
S'Binding protein with a strong affinity to the bleomycin family of antibiotics, which confers resistance to these antibiotics by preventing the bleomycin-induced DNA breakage'
p122
sg6
g7
sg8
g118
ssS'mexab'
p123
(dp124
g60
S'Resistance-nodulation-cell division transporter system. Multidrug resistance efflux pump.'
p125
sg6
g7
sg8
g123
ssS'cml'
p126
(dp127
g60
S'Major facilitator superfamily transporter, chloramphenicol efflux pump.'
p128
sg6
g7
sg8
g126
ssS'pbp'
p129
(dp130
g60
S'The enzyme has a penicillin-insensitive transglycosylase N-terminal domain (formation of linear glycan strands) and a penicillin-sensitive transpeptidase C-terminal domain (cross-linking of the peptide subunits)'
p131
sg6
g7
sg8
g129
ssS'aph3iiia'
p132
(dp133
g3
(lp134
S'gentamincin_b'
p135
asg6
g7
sg8
g132
ssS'cata11'
p136
(dp137
g3
(lp138
S'chloramphenicol'
p139
asg6
g7
sg8
g136
ssS'cata8'
p140
(dp141
g3
(lp142
S'chloramphenicol'
p143
asg6
g7
sg8
g140
ssS'cata9'
p144
(dp145
g3
(lp146
S'chloramphenicol'
p147
asg6
g7
sg8
g144
ssS'bl1_cmy2'
p148
(dp149
g3
(lp150
S'ceftazidime'
p151
asg6
g7
sg8
g148
ssS'bl2e_cepa'
p152
(dp153
g3
(lp154
S'cephalosporin'
p155
asg6
g7
sg8
g152
ssS'cata3'
p156
(dp157
g3
(lp158
S'chloramphenicol'
p159
asg6
g7
sg8
g156
ssS'cata1'
p160
(dp161
g3
(lp162
S'chloramphenicol'
p163
asg6
g7
sg8
g160
ssS'cata6'
p164
(dp165
g3
(lp166
S'chloramphenicol'
p167
asg6
g7
sg8
g164
ssS'cata7'
p168
(dp169
g3
(lp170
S'chloramphenicol'
p171
asg6
g7
sg8
g168
ssS'cata4'
p172
(dp173
g3
(lp174
S'chloramphenicol'
p175
asg6
g7
sg8
g172
ssS'bl1_cf'
p176
(dp177
g3
(lp178
S'cephalosporin'
p179
asg6
g7
sg8
g176
ssS'macab'
p180
(dp181
g60
S'Resistance-nodulation-cell division transporter system. Multidrug resistance efflux pump. Macrolide-specific efflux system.'
p182
sg6
g7
sg8
g180
ssS'qnr'
p183
(dp184
g60
S'Pentapeptide repeat family, which protects DNA gyrase from the inhibition of quinolones.'
p185
sg6
g7
sg8
g183
ssS'ere'
p186
(dp187
g60
S'Erythromycin esterase, which can inactivate erythromycin by lactone ring cleavage.'
p188
sg6
g7
sg8
g186
ssS'sul'
p189
(dp190
g60
S'Sulfonamide-resistant dihydropteroate synthase, which can not be inhibited by sulfonamide.'
p191
sg6
g7
sg8
g189
ssS'aph33ib'
p192
(dp193
g3
(lp194
S'streptomycin'
p195
asg6
g7
sg8
g192
ssS'aph33ia'
p196
(dp197
g3
(lp198
S'streptomycin'
p199
asg6
g7
sg8
g196
ssS'tolc'
p200
(dp201
g3
(lp202
S'acriflavin'
p203
asg21
(lp204
S'acrb'
p205
asg6
g7
sg8
g200
ssS'mdtg'
p206
(dp207
g3
(lp208
S'fosfomycin'
p209
asg60
S'Major facilitator superfamily transporter. Multidrug resistance efflux pump.'
p210
sg6
g7
sg8
g206
ssS'bl2f_nmca'
p211
(dp212
g3
(lp213
S'penicillin'
p214
asg6
g7
sg8
g211
ssS'adeabc'
p215
(dp216
g60
S'Resistance-nodulation-cell division transporter system. Multidrug resistance efflux pump.'
p217
sg6
g7
sg8
g215
ssS'mdfa'
p218
(dp219
g3
(lp220
S'neomycin'
p221
asg6
g7
sg8
g218
ssS'aph'
p222
(dp223
g60
S'Aminoglycoside O-phosphotransferase, which modifies aminoglycosides by phosphorylation.'
p224
sg6
g7
sg8
g222
ssS'bl3_vim'
p225
(dp226
g3
(lp227
S'penicillin'
p228
asg6
g7
sg8
g225
ssS'bl2b_ohio1'
p229
(dp230
g3
(lp231
S'penicillin'
p232
asg6
g7
sg8
g229
ssS'cara'
p233
(dp234
g3
(lp235
S'macrolide'
p236
asg6
g7
sg8
g233
ssS'dfra19'
p237
(dp238
g3
(lp239
S'trimethoprim'
p240
asg6
g7
sg8
g237
ssS'dfra14'
p241
(dp242
g3
(lp243
S'trimethoprim'
p244
asg6
g7
sg8
g241
ssS'dfra15'
p245
(dp246
g3
(lp247
S'trimethoprim'
p248
asg6
g7
sg8
g245
ssS'dfra16'
p249
(dp250
g3
(lp251
S'trimethoprim'
p252
asg6
g7
sg8
g249
ssS'dfra17'
p253
(dp254
g3
(lp255
S'trimethoprim'
p256
asg6
g7
sg8
g253
ssS'dfra10'
p257
(dp258
g3
(lp259
S'trimethoprim'
p260
asg6
g7
sg8
g257
ssS'dfra12'
p261
(dp262
g3
(lp263
S'trimethoprim'
p264
asg6
g7
sg8
g261
ssS'dfra13'
p265
(dp266
g3
(lp267
S'trimethoprim'
p268
asg6
g7
sg8
g265
ssS'vanhb'
p269
(dp270
g3
(lp271
S'vancomycin'
p272
asg21
(lp273
S'vanwb'
p274
asg6
g7
sg8
g269
ssS'vanha'
p275
(dp276
g3
(lp277
S'teicoplanin'
p278
asg21
(lp279
S'vansa'
p280
asg6
g7
sg8
g275
ssS'vanhd'
p281
(dp282
g3
(lp283
S'teicoplanin'
p284
asg21
(lp285
S'vansd'
p286
asg6
g7
sg8
g281
ssS'mls_mfs'
p287
(dp288
g60
S'Major facilitator superfamily transporter, Macrolide-Lincosamide-Streptogramin B efflux pump.'
p289
sg6
g7
sg8
g287
ssS'aac2i'
p290
(dp291
g3
(lp292
S'gentamicin'
p293
asg6
g7
sg8
g290
ssS'bl2d_oxa10'
p294
(dp295
g3
(lp296
S'penicillin'
p297
asg6
g7
sg8
g294
ssS'bcrc'
p298
(dp299
g3
(lp300
S'bacitracin'
p301
asg21
(lp302
S'bcra'
p303
asg6
g7
sg8
g298
ssS'bcra'
p304
(dp305
g3
(lp306
S'bacitracin'
p307
asg21
(lp308
S'bcrc'
p309
asg6
g7
sg8
g304
ssS'bl2_veb'
p310
(dp311
g3
(lp312
S'penicillin'
p313
asg6
g7
sg8
g310
ssS'bl2d_moxa'
p314
(dp315
g3
(lp316
S'penicillin'
p317
asg6
g7
sg8
g314
ssS'bl1_och'
p318
(dp319
g3
(lp320
S'cephalosporin'
p321
asg6
g7
sg8
g318
ssS'vph'
p322
(dp323
g3
(lp324
S'viomycin'
p325
asg60
S'Viomycin phosphotransferase, which chieves inactivation of their antibiotic substrates by phosphorylation.'
p326
sg6
g7
sg8
g322
ssS'mexef'
p327
(dp328
g60
S'Resistance-nodulation-cell division transporter system. Multidrug resistance efflux pump.'
p329
sg6
g7
sg8
g327
ssS'bl3_l'
p330
(dp331
g3
(lp332
S'penicillin'
p333
asg6
g7
sg8
g330
ssS'mdtp'
p334
(dp335
g3
(lp336
S'puromycin'
p337
asg21
(lp338
S'mdto'
p339
asg6
g7
sg8
g334
ssS'bl1_asba'
p340
(dp341
g3
(lp342
S'cephalosporin'
p343
asg6
g7
sg8
g340
ssS'amra'
p344
(dp345
g3
(lp346
S'acriflavine'
p347
asg21
(lp348
S'opra'
p349
asg6
g7
sg8
g344
ssS'amrb'
p350
(dp351
g3
(lp352
S'acriflavine'
p353
asg21
(lp354
S'opra'
p355
asg6
g7
sg8
g350
ssS'bl1_pao'
p356
(dp357
g3
(lp358
S'cephalosporin'
p359
asg6
g7
sg8
g356
ssS'oleb'
p360
(dp361
g3
(lp362
S'macrolide'
p363
asg6
g7
sg8
g360
ssS'mdtf'
p364
(dp365
g3
(lp366
S'erythromycin'
p367
asg21
(lp368
S'tolc'
p369
asg6
g7
sg8
g364
ssS'mdte'
p370
(dp371
g3
(lp372
S'erythromycin'
p373
asg21
(lp374
S'tolc'
p375
asg6
g7
sg8
g370
ssS'mdtk'
p376
(dp377
g3
(lp378
S'norfloxacin'
p379
asg60
S'Major facilitator superfamily transporter. Multidrug resistance efflux pump.'
p380
sg6
g7
sg8
g376
ssS'erm'
p381
(dp382
g60
S'rRNA adenine N-6-methyltransferase, which can methylate adenine at position 2058 of 23S rRNA, conferring resistance to erythromycin.'
p383
sg6
g7
sg8
g381
ssS'mdth'
p384
(dp385
g3
(lp386
S'fosfomycin'
p387
asg60
S'Major facilitator superfamily transporter. Multidrug resistance efflux pump.'
p388
sg6
g7
sg8
g384
ssS'mdto'
p389
(dp390
g3
(lp391
S'puromycin'
p392
asg21
(lp393
S'mdtp'
p394
asg6
g7
sg8
g389
ssS'mdtn'
p395
(dp396
g3
(lp397
S'puromycin'
p398
asg21
(lp399
S'mdtp'
p400
asg6
g7
sg8
g395
ssS'mdtm'
p401
(dp402
g3
(lp403
S'norfloxacin'
p404
asg60
S'Major facilitator superfamily transporter. Multidrug resistance efflux pump.'
p405
sg6
g7
sg8
g401
ssS'mdtl'
p406
(dp407
g3
(lp408
S'chloramphenicol'
p409
asg60
S'Major facilitator superfamily transporter. Multidrug resistance efflux pump.'
p410
sg6
g7
sg8
g406
ssS'bl2_kpc'
p411
(dp412
g3
(lp413
S'penicillin'
p414
asg6
g7
sg8
g411
ssS'bcr'
p415
(dp416
g60
S'ABC transporter system, bacitracin efflux pump.'
p417
sg6
g7
sg8
g415
ssS'bl2d_oxa9'
p418
(dp419
g3
(lp420
S'penicillin'
p421
asg6
g7
sg8
g418
ssS'bl3_cpha'
p422
(dp423
g3
(lp424
S'penicillin'
p425
asg6
g7
sg8
g422
ssS'bl2d_oxa1'
p426
(dp427
g3
(lp428
S'penicillin'
p429
asg6
g7
sg8
g426
ssS'bl2d_oxa2'
p430
(dp431
g3
(lp432
S'penicillin'
p433
asg6
g7
sg8
g430
ssS'dfra1'
p434
(dp435
g3
(lp436
S'trimethoprim'
p437
asg6
g7
sg8
g434
ssS'bl3_imp'
p438
(dp439
g3
(lp440
S'penicillin'
p441
asg6
g7
sg8
g438
ssS'dfra5'
p442
(dp443
g3
(lp444
S'trimethoprim'
p445
asg6
g7
sg8
g442
ssS'pur8'
p446
(dp447
g3
(lp448
S'puromycin'
p449
asg6
g7
sg8
g446
ssS'lsa'
p450
(dp451
g3
(lp452
S'macrolide'
p453
asg60
S'ABC efflux family that is resistant to MLS antibiotics'
p454
sg6
g7
sg8
g450
ssS'bl2a_nps'
p455
(dp456
g3
(lp457
S'penicillin'
p458
asg6
g7
sg8
g455
ssS'pbp1a'
p459
(dp460
g3
(lp461
S'penicillin'
p462
asg6
g7
sg8
g459
ssS'pbp1b'
p463
(dp464
g3
(lp465
S'penicillin'
p466
asg6
g7
sg8
g463
ssS'bl2b_tle'
p467
(dp468
g3
(lp469
S'penicillin'
p470
asg6
g7
sg8
g467
ssS'bl2a_iii2'
p471
(dp472
g3
(lp473
S'penicillin'
p474
asg6
g7
sg8
g471
ssS'emrd'
p475
(dp476
g60
S'Multidrug resistance efflux pump.'
p477
sg21
(lp478
S'emre'
p479
asg6
g7
sg8
g475
ssS'emre'
p480
(dp481
g3
(lp482
S'aminoglycoside'
p483
asg21
(lp484
S'emrd'
p485
asg60
S'Multidrug resistance efflux pump.'
p486
sg6
g7
sg8
g480
ssS'aac3vii'
p487
(dp488
g3
(lp489
S'paromomycin'
p490
asg6
g7
sg8
g487
ssS'ceo'
p491
(dp492
g60
S'Resistance-nodulation-cell division transporter system. Multidrug resistance efflux pump.'
p493
sg6
g7
sg8
g491
ssS'bl3_cit'
p494
(dp495
g3
(lp496
S'penicillin'
p497
asg6
g7
sg8
g494
ssS'bl2b_tem'
p498
(dp499
g3
(lp500
S'penicillin'
p501
asg6
g7
sg8
g498
ssS'vantg'
p502
(dp503
g3
(lp504
S'vancomycin'
p505
asg21
(lp506
S'vanug'
p507
asg6
g7
sg8
g502
ssS'bl3_sim'
p508
(dp509
g3
(lp510
S'penicillin'
p511
asg6
g7
sg8
g508
ssS'vante'
p512
(dp513
g3
(lp514
S'vancomycin'
p515
asg21
(lp516
S'vanse'
p517
asg6
g7
sg8
g512
ssS'vanya'
p518
(dp519
g3
(lp520
S'teicoplanin'
p521
asg21
(lp522
S'vansa'
p523
asg6
g7
sg8
g518
ssS'vanyb'
p524
(dp525
g3
(lp526
S'vancomycin'
p527
asg21
(lp528
S'vanwb'
p529
asg6
g7
sg8
g524
ssS'vanyd'
p530
(dp531
g3
(lp532
S'teicoplanin'
p533
asg21
(lp534
S'vansd'
p535
asg6
g7
sg8
g530
ssS'vanyg'
p536
(dp537
g3
(lp538
S'vancomycin'
p539
asg21
(lp540
S'vanug'
p541
asg6
g7
sg8
g536
ssS'aph4ib'
p542
(dp543
g3
(lp544
S'hygromycin_b'
p545
asg6
g7
sg8
g542
ssS'aph4ia'
p546
(dp547
g3
(lp548
S'hygromycin_b'
p549
asg6
g7
sg8
g546
ssS'bl2_ges'
p550
(dp551
g3
(lp552
S'penicillin'
p553
asg6
g7
sg8
g550
ssS'blt'
p554
(dp555
g3
(lp556
S'puromycin'
p557
asg60
S'Major facilitator superfamily transporter. Multidrug resistance efflux pump.'
p558
sg6
g7
sg8
g554
ssS'bl2d_r39'
p559
(dp560
g3
(lp561
S'penicillin'
p562
asg6
g7
sg8
g559
ssS'ksga'
p563
(dp564
g3
(lp565
S'kasugamycin'
p566
asg60
S"Specifically dimethylates two adjacent adenosines in the loop of a conserved hairpin near the 3'-end of 16S rRNA in the 30S particle. Its inactivation leads to kasugamycin resistance."
p567
sg6
g7
sg8
g563
ssS'aad9ib'
p568
(dp569
g3
(lp570
S'spectomycin'
p571
asg6
g7
sg8
g568
ssS'bl2a_okp'
p572
(dp573
g3
(lp574
S'penicillin'
p575
asg6
g7
sg8
g572
ssS'catb5'
p576
(dp577
g3
(lp578
S'chloramphenicol'
p579
asg6
g7
sg8
g576
ssS'catb4'
p580
(dp581
g3
(lp582
S'chloramphenicol'
p583
asg6
g7
sg8
g580
ssS'catb3'
p584
(dp585
g3
(lp586
S'chloramphenicol'
p587
asg6
g7
sg8
g584
ssS'catb2'
p588
(dp589
g3
(lp590
S'chloramphenicol'
p591
asg6
g7
sg8
g588
ssS'catb1'
p592
(dp593
g3
(lp594
S'chloramphenicol'
p595
asg6
g7
sg8
g592
ssS'cata'
p596
(dp597
g60
S'Group A chloramphenicol acetyltransferase, which can inactivate chloramphenicol.'
p598
sg6
g7
sg8
g596
ssS'aac3vi'
p599
(dp600
g3
(lp601
S'gentamicin'
p602
asg6
g7
sg8
g599
ssS'catb'
p603
(dp604
g60
S'Group B chloramphenicol acetyltransferase, which can inactivate chloramphenicol. Also referred to as xenobiotic acetyltransferase.'
p605
sg6
g7
sg8
g603
ssS'bl3_bc'
p606
(dp607
g3
(lp608
S'penicillin'
p609
asg6
g7
sg8
g606
ssS'tet_mod'
p610
(dp611
g60
S'NADP-requiring oxidoreductase, an enzyme that can modify tetracycline. Mechanism detail unknown.'
p612
sg6
g7
sg8
g610
ssS'vgab'
p613
(dp614
g3
(lp615
S'streptogramin_a'
p616
asg6
g7
sg8
g613
ssS'vgaa'
p617
(dp618
g3
(lp619
S'streptogramin_a'
p620
asg6
g7
sg8
g617
ssS'mecr1'
p621
(dp622
g3
(lp623
S'methicillin'
p624
asg60
S'Methicillin-resistance regulatory protein for mecA'
p625
sg6
g7
sg8
g621
ssS'tet40'
p626
(dp627
g3
(lp628
S'tetracycline'
p629
asg6
g7
sg8
g626
ssS'tet41'
p630
(dp631
g3
(lp632
S'tetracycline'
p633
asg6
g7
sg8
g630
ssS'bl3_ccra'
p634
(dp635
g3
(lp636
S'penicillin'
p637
asg6
g7
sg8
g634
ssS'dfra7'
p638
(dp639
g3
(lp640
S'trimethoprim'
p641
asg6
g7
sg8
g638
ssS'aph3iva'
p642
(dp643
g3
(lp644
S'ribostamycin'
p645
asg6
g7
sg8
g642
ssS'ant9ia'
p646
(dp647
g3
(lp648
S'spectinomycin'
p649
asg6
g7
sg8
g646
ssS'bl2e_cbla'
p650
(dp651
g3
(lp652
S'cephalosporin'
p653
asg6
g7
sg8
g650
ssS'sta'
p654
(dp655
g3
(lp656
S'streptothricin'
p657
asg60
S'Streptothricin acetyltransferase (STAT).'
p658
sg6
g7
sg8
g654
ssS'aac'
p659
(dp660
g60
S'Aminoglycoside N-acetyltransferase, which modifies aminoglycosides by acetylation.'
p661
sg6
g7
sg8
g659
ssS'msra'
p662
(dp663
g3
(lp664
S'macrolide'
p665
asg6
g7
sg8
g662
ssS'aac3iii'
p666
(dp667
g3
(lp668
S'lividomycin'
p669
asg6
g7
sg8
g666
ssS'str'
p670
(dp671
g3
(lp672
S'streptomycin'
p673
asg60
S'Streptomycin resistance protein.'
p674
sg6
g7
sg8
g670
ssS'tet_xprt'
p675
(dp676
g60
S'Xanthine-guanine phosphoribosyltransferase. Mechanism detail unknown.'
p677
sg6
g7
sg8
g675
ssS'aac3iia'
p678
(dp679
g3
(lp680
S'gentamicin'
p681
asg6
g7
sg8
g678
ssS'aac3iib'
p682
(dp683
g3
(lp684
S'gentamicin'
p685
asg6
g7
sg8
g682
ssS'tlrc'
p686
(dp687
g3
(lp688
S'macrolide'
p689
asg6
g7
sg8
g686
ssS'emea'
p690
(dp691
g3
(lp692
S'fluoroquinolone'
p693
asg60
S'Major facilitator superfamily transporter. Multidrug resistance efflux pump.'
p694
sg6
g7
sg8
g690
ssS'ant'
p695
(dp696
g60
S'Aminoglycoside O-nucleotidylyltransferase, which modifies aminoglycosides by adenylylation.'
p697
sg6
g7
sg8
g695
ssS'cata2'
p698
(dp699
g3
(lp700
S'chloramphenicol'
p701
asg6
g7
sg8
g698
ssS'tet_other'
p702
(dp703
g60
S'Tetracycline resistance other mechanisms.'
p704
sg6
g7
sg8
g702
ssS'tet'
p705
(dp706
g3
(lp707
S'tetracycline'
p708
asg6
g7
sg8
g705
ssS'ant4iia'
p709
(dp710
g3
(lp711
S'amikacin'
p712
asg6
g7
sg8
g709
ssS'mexhi'
p713
(dp714
g60
S'Resistance-nodulation-cell division transporter system. Multidrug resistance efflux pump.'
p715
sg6
g7
sg8
g713
ssS'cata5'
p716
(dp717
g3
(lp718
S'chloramphenicol'
p719
asg6
g7
sg8
g716
ssS'ykkd'
p720
(dp721
g3
(lp722
S'na_antimicrobials'
p723
asg21
(lp724
S'ykkc'
p725
asg6
g7
sg8
g720
ssS'mexcd'
p726
(dp727
g60
S'Resistance-nodulation-cell division transporter system. Multidrug resistance efflux pump.'
p728
sg6
g7
sg8
g726
ssS'sul1'
p729
(dp730
g3
(lp731
S'sulfonamide'
p732
asg6
g7
sg8
g729
ssS'sul2'
p733
(dp734
g3
(lp735
S'sulfonamide'
p736
asg6
g7
sg8
g733
ssS'sul3'
p737
(dp738
g3
(lp739
S'sulfonamide'
p740
asg6
g7
sg8
g737
ssS'aph6id'
p741
(dp742
g3
(lp743
S'streptomycin'
p744
asg6
g7
sg8
g741
ssS'macb'
p745
(dp746
g3
(lp747
S'macrolide'
p748
asg21
(lp749
S'tolc'
p750
asg6
g7
sg8
g745
ssS'maca'
p751
(dp752
g3
(lp753
S'macrolide'
p754
asg21
(lp755
S'tolc'
p756
asg6
g7
sg8
g751
ssS'aph6ic'
p757
(dp758
g3
(lp759
S'streptomycin'
p760
asg6
g7
sg8
g757
ssS'tcr3'
p761
(dp762
g3
(lp763
S'tetracycline'
p764
asg6
g7
sg8
g761
ssS'pbp2b'
p765
(dp766
g3
(lp767
S'penicillin'
p768
asg6
g7
sg8
g765
ssS'vanxye'
p769
(dp770
g3
(lp771
S'vancomycin'
p772
asg21
(lp773
S'vanse'
p774
asg6
g7
sg8
g769
ssS'vanxyg'
p775
(dp776
g3
(lp777
S'vancomycin'
p778
asg21
(lp779
S'vanug'
p780
asg6
g7
sg8
g775
ssS'pbp2x'
p781
(dp782
g3
(lp783
S'penicillin'
p784
asg6
g7
sg8
g781
ssS'bl2d_lcr1'
p785
(dp786
g3
(lp787
S'penicillin'
p788
asg6
g7
sg8
g785
ssS'vanxyc'
p789
(dp790
g3
(lp791
S'vancomycin'
p792
asg21
(lp793
S'vansc'
p794
asg6
g7
sg8
g789
ssS'dfrb6'
p795
(dp796
g3
(lp797
S'trimethoprim'
p798
asg6
g7
sg8
g795
ssS'mls_hdr'
p799
(dp800
g60
S'Streptogramin B Lyase, which can deactivate the target drug by hydrolysis.'
p801
sg6
g7
sg8
g799
ssS'bl2be_ctxm'
p802
(dp803
g3
(lp804
S'cephalosporin_i'
p805
asg6
g7
sg8
g802
ssS'dfrb2'
p806
(dp807
g3
(lp808
S'trimethoprim'
p809
asg6
g7
sg8
g806
ssS'dfrb1'
p810
(dp811
g3
(lp812
S'trimethoprim'
p813
asg6
g7
sg8
g810
ssS'bl1_ec'
p814
(dp815
g3
(lp816
S'cephalosporin'
p817
asg6
g7
sg8
g814
ssS'bl2_len'
p818
(dp819
g3
(lp820
S'penicillin'
p821
asg6
g7
sg8
g818
ssS'vanwb'
p822
(dp823
g3
(lp824
S'vancomycin'
p825
asg21
(lp826
S'vansb'
p827
asg6
g7
sg8
g822
ssS'tetx'
p828
(dp829
g3
(lp830
S'tetracycline'
p831
asg6
g7
sg8
g828
ssS'vanwg'
p832
(dp833
g3
(lp834
S'vancomycin'
p835
asg21
(lp836
S'vanug'
p837
asg6
g7
sg8
g832
ssS'tet_rpp'
p838
(dp839
g60
S'Ribosomal protection protein, which protects ribosome from the translation inhibition of tetracycline.'
p840
sg6
g7
sg8
g838
ssS'aph3ic'
p841
(dp842
g3
(lp843
S'gentamincin_b'
p844
asg6
g7
sg8
g841
ssS'bl3_shw'
p845
(dp846
g3
(lp847
S'penicillin'
p848
asg6
g7
sg8
g845
ssS'ant2ib'
p849
(dp850
g3
(lp851
S'gentamicin'
p852
asg6
g7
sg8
g849
ssS'ant2ia'
p853
(dp854
g3
(lp855
S'gentamicin'
p856
asg6
g7
sg8
g853
ssS'bl3_gim'
p857
(dp858
g3
(lp859
S'penicillin'
p860
asg6
g7
sg8
g857
ssS'tet_flavo'
p861
(dp862
g60
S'Flavoproteins. Mechanism detail unknown. Only one such protein found in oral metagenome.'
p863
sg6
g7
sg8
g861
ssS'qacab'
p864
(dp865
g60
S'Multidrug efflux pump from bacterial pathogen staphylococcus aureus. Including QacA and QacB, both of which confer resistance to various toxic organic cations but differ in that QacB mediates lower levels of resistance to divalent cations. They differed by seven nucleotide subsititutions.'
p866
sg6
g7
sg8
g864
ssS'bl2f_sme1'
p867
(dp868
g3
(lp869
S'penicillin'
p870
asg6
g7
sg8
g867
ssS'mepa'
p871
(dp872
g3
(lp873
S'tigecycline'
p874
asg60
S'Multi antimicrobial extrusion (MATE) efflux family protein. Multidrug resistance efflux pump.'
p875
sg6
g7
sg8
g871
ssS'aac6ia'
p876
(dp877
g3
(lp878
S'dibekacin'
p879
asg6
g7
sg8
g876
ssS'aac6ib'
p880
(dp881
g3
(lp882
S'dibekacin'
p883
asg6
g7
sg8
g880
ssS'aac6ic'
p884
(dp885
g3
(lp886
S'dibekacin'
p887
asg6
g7
sg8
g884
ssS'aac6ie'
p888
(dp889
g3
(lp890
S'dibekacin'
p891
asg6
g7
sg8
g888
ssS'aac6if'
p892
(dp893
g3
(lp894
S'dibekacin'
p895
asg6
g7
sg8
g892
ssS'aac6ig'
p896
(dp897
g3
(lp898
S'dibekacin'
p899
asg6
g7
sg8
g896
ssS'lnu'
p900
(dp901
g60
S'Lincosamide nucleotidyltransferase.'
p902
sg6
g7
sg8
g900
ssS'fosa'
p903
(dp904
g3
(lp905
S'fosfomycin'
p906
asg6
g7
sg8
g903
ssS'fosb'
p907
(dp908
g3
(lp909
S'fosfomycin'
p910
asg6
g7
sg8
g907
ssS'fosc'
p911
(dp912
g3
(lp913
S'fosfomycin'
p914
asg6
g7
sg8
g911
ssS'fosx'
p915
(dp916
g3
(lp917
S'fosfomycin'
p918
asg6
g7
sg8
g915
ssS'mfpa'
p919
(dp920
g3
(lp921
S'fluoroquinolone'
p922
asg60
S'Pentapeptide repeat family, which protects DNA gyrase from the inhibition of quinolones.'
p923
sg6
g7
sg8
g919
ssS'bl2b_tem2'
p924
(dp925
g3
(lp926
S'cephalosporin_i'
p927
asg6
g7
sg8
g924
ssS'bl1_sm'
p928
(dp929
g3
(lp930
S'cephalosporin'
p931
asg6
g7
sg8
g928
ssS'ykkc'
p932
(dp933
g3
(lp934
S'na_antimicrobials'
p935
asg21
(lp936
S'ykkd'
p937
asg6
g7
sg8
g932
ssS'pmra'
p938
(dp939
g3
(lp940
S'norfloxacin'
p941
asg60
S'Major facilitator superfamily transporter. Multidrug resistance efflux pump.'
p942
sg6
g7
sg8
g938
ssS'bl2c_pse1'
p943
(dp944
g3
(lp945
S'penicillin'
p946
asg6
g7
sg8
g943
ssS'ereb'
p947
(dp948
g3
(lp949
S'erythromycin'
p950
asg6
g7
sg8
g947
ssS'erea'
p951
(dp952
g3
(lp953
S'erythromycin'
p954
asg6
g7
sg8
g951
ssS'mdtef'
p955
(dp956
g60
S'Resistance-nodulation-cell division transporter system. Multidrug resistance efflux pump.'
p957
sg6
g7
sg8
g955
ssS'aph3va'
p958
(dp959
g3
(lp960
S'ribostamycin'
p961
asg6
g7
sg8
g958
ssS'aph3vb'
p962
(dp963
g3
(lp964
S'ribostamycin'
p965
asg6
g7
sg8
g962
ssS'mefa'
p966
(dp967
g3
(lp968
S'macrolide'
p969
asg6
g7
sg8
g966
ssS'dfra'
p970
(dp971
g60
S'Group A drug-insensitive dihydrofolate reductase, which can not be inhibited by trimethoprim.'
p972
sg6
g7
sg8
g970
ssS'dfrb'
p973
(dp974
g60
S'Group B drug-insensitive R67 dihydrofolate reductase, which can not be inhibited by trimethoprim.'
p975
sg6
g7
sg8
g973
ssS'bl2b_rob'
p976
(dp977
g3
(lp978
S'penicillin'
p979
asg6
g7
sg8
g976
ssS'lmrb'
p980
(dp981
g3
(lp982
S'lincomycin'
p983
asg6
g7
sg8
g980
ssS'lmra'
p984
(dp985
g3
(lp986
S'lincomycin'
p987
asg6
g7
sg8
g984
ssS'bla_c'
p988
(dp989
g60
S"Class C beta-lactamase. This enzyme breaks the beta-lactam antibiotic ring open and deactivates the molecule's antibacterial properites."
p990
sg6
g7
sg8
g988
ssS'bla_b'
p991
(dp992
g60
S"Class B beta-lactamase. This enzyme breaks the beta-lactam antibiotic ring open and deactivates the molecule's antibacterial properites."
p993
sg6
g7
sg8
g991
ssS'bla_a'
p994
(dp995
g60
S"Class A beta-lactamase. This enzyme breaks the beta-lactam antibiotic ring open and deactivates the molecule's antibacterial properites."
p996
sg6
g7
sg8
g994
ssS'bl2a_pc'
p997
(dp998
g3
(lp999
S'penicillin'
p1000
asg6
g7
sg8
g997
ssS'bla_d'
p1001
(dp1002
g60
S"Class D beta-lactamase. This enzyme breaks the beta-lactam antibiotic ring open and deactivates the molecule's antibacterial properites."
p1003
sg6
g7
sg8
g1001
ssS'acrb'
p1004
(dp1005
g3
(lp1006
S'acriflavin'
p1007
asg21
(lp1008
S'tolc'
p1009
asg6
g7
sg8
g1004
ssS'vanse'
p1010
(dp1011
g3
(lp1012
S'vancomycin'
p1013
asg21
(lp1014
S'vanre'
p1015
asg6
g7
sg8
g1010
ssS'acra'
p1016
(dp1017
g3
(lp1018
S'acriflavin'
p1019
asg21
(lp1020
S'tolc'
p1021
asg6
g7
sg8
g1016
ssS'vansc'
p1022
(dp1023
g3
(lp1024
S'vancomycin'
p1025
asg21
(lp1026
S'vanrc'
p1027
asg6
g7
sg8
g1022
ssS'vansb'
p1028
(dp1029
g3
(lp1030
S'vancomycin'
p1031
asg21
(lp1032
S'vanwb'
p1033
asg6
g7
sg8
g1028
ssS'cml_e8'
p1034
(dp1035
g3
(lp1036
S'chloramphenicol'
p1037
asg6
g7
sg8
g1034
ssS'cml_e6'
p1038
(dp1039
g3
(lp1040
S'chloramphenicol'
p1041
asg6
g7
sg8
g1038
ssS'cml_e7'
p1042
(dp1043
g3
(lp1044
S'chloramphenicol'
p1045
asg6
g7
sg8
g1042
ssS'cml_e4'
p1046
(dp1047
g3
(lp1048
S'chloramphenicol'
p1049
asg6
g7
sg8
g1046
ssS'cml_e5'
p1050
(dp1051
g3
(lp1052
S'chloramphenicol'
p1053
asg6
g7
sg8
g1050
ssS'cml_e2'
p1054
(dp1055
g3
(lp1056
S'chloramphenicol'
p1057
asg6
g7
sg8
g1054
ssS'cml_e3'
p1058
(dp1059
g3
(lp1060
S'chloramphenicol'
p1061
asg6
g7
sg8
g1058
ssS'cml_e1'
p1062
(dp1063
g3
(lp1064
S'chloramphenicol'
p1065
asg6
g7
sg8
g1062
ssS'vanxb'
p1066
(dp1067
g3
(lp1068
S'vancomycin'
p1069
asg21
(lp1070
S'vanwb'
p1071
asg6
g7
sg8
g1066
ssS'bl2be_men'
p1072
(dp1073
g3
(lp1074
S'penicillin'
p1075
asg6
g7
sg8
g1072
ssS'vant'
p1076
(dp1077
g3
(lp1078
S'vancomycin'
p1079
asg21
(lp1080
S'vansc'
p1081
asg6
g7
sg8
g1076
ssS'vanxd'
p1082
(dp1083
g3
(lp1084
S'teicoplanin'
p1085
asg21
(lp1086
S'vansd'
p1087
asg6
g7
sg8
g1082
ssS'vanz'
p1088
(dp1089
g3
(lp1090
S'teicoplanin'
p1091
asg60
S'VanZ confers low-level VanZ confers low-level resistance to the glycopeptide antibiotic teicoplanin.'
p1092
sg6
g7
sg8
g1088
ssS'vana'
p1093
(dp1094
g3
(lp1095
S'teicoplanin'
p1096
asg21
(lp1097
S'vansa'
p1098
asg60
S'VanA type vancomycin resistance operon genes, which can synthesize peptidoglycan with modified C-terminal D-Ala-D-Ala to D-alanine--D-lactate.'
p1099
sg6
g7
sg8
g1093
ssS'vanc'
p1100
(dp1101
g3
(lp1102
S'vancomycin'
p1103
asg21
(lp1104
S'vansc'
p1105
asg60
S'VanC type vancomycin resistance operon genes, which can synthesize peptidoglycan with modified C-terminal D-Ala-D-Ala to D-alanine--D-serine.'
p1106
sg6
g7
sg8
g1100
ssS'vanb'
p1107
(dp1108
g3
(lp1109
S'vancomycin'
p1110
asg21
(lp1111
S'vanwb'
p1112
asg60
S'VanB type vancomycin resistance operon genes, which can synthesize peptidoglycan with modified C-terminal D-Ala-D-Ala to D-alanine--D-lactate.'
p1113
sg6
g7
sg8
g1107
ssS'vane'
p1114
(dp1115
g3
(lp1116
S'vancomycin'
p1117
asg21
(lp1118
S'vanse'
p1119
asg60
S'VanE type vancomycin resistance operon genes, which can synthesize peptidoglycan with modified C-terminal D-Ala-D-Ala to D-alanine--D-serine.'
p1120
sg6
g7
sg8
g1114
ssS'vand'
p1121
(dp1122
g3
(lp1123
S'teicoplanin'
p1124
asg21
(lp1125
S'vansd'
p1126
asg60
S'VanD type vancomycin resistance operon genes, which can synthesize peptidoglycan with modified C-terminal D-Ala-D-Ala to D-alanine--D-lactate.'
p1127
sg6
g7
sg8
g1121
ssS'vang'
p1128
(dp1129
g3
(lp1130
S'vancomycin'
p1131
asg21
(lp1132
S'vanug'
p1133
asg60
S'VanG type vancomycin resistance operon genes, which can synthesize peptidoglycan with modified C-terminal D-Ala-D-Ala to D-alanine--D-serine.'
p1134
sg6
g7
sg8
g1128
ssS'tsnr'
p1135
(dp1136
g3
(lp1137
S'thiostrepton'
p1138
asg60
S'Specifically methylates the adenosine-1067 in 23S ribosomal RNA. Confers resistance to antibiotic thiostrepton.'
p1139
sg6
g7
sg8
g1135
ssS'tetpb'
p1140
(dp1141
g3
(lp1142
S'tetracycline'
p1143
asg6
g7
sg8
g1140
ssS'tetpa'
p1144
(dp1145
g3
(lp1146
S'tetracycline'
p1147
asg6
g7
sg8
g1144
ssS'bl2a_iii'
p1148
(dp1149
g3
(lp1150
S'penicillin'
p1151
asg6
g7
sg8
g1148
ssS'cata14'
p1152
(dp1153
g3
(lp1154
S'chloramphenicol'
p1155
asg6
g7
sg8
g1152
ssS'cata15'
p1156
(dp1157
g3
(lp1158
S'chloramphenicol'
p1159
asg6
g7
sg8
g1156
ssS'cata16'
p1160
(dp1161
g3
(lp1162
S'chloramphenicol'
p1163
asg6
g7
sg8
g1160
ssS'cata10'
p1164
(dp1165
g3
(lp1166
S'chloramphenicol'
p1167
asg6
g7
sg8
g1164
ssS'oprm'
p1168
(dp1169
g3
(lp1170
S'tetracycline'
p1171
asg21
(lp1172
S'mexy'
p1173
asg6
g7
sg8
g1168
ssS'cata12'
p1174
(dp1175
g3
(lp1176
S'chloramphenicol'
p1177
asg6
g7
sg8
g1174
ssS'cata13'
p1178
(dp1179
g3
(lp1180
S'chloramphenicol'
p1181
asg6
g7
sg8
g1178
ssS'tet_efflux'
p1182
(dp1183
g60
S'Major facilitator superfamily transporter, tetracycline efflux pump.'
p1184
sg6
g7
sg8
g1182
ssS'rif'
p1185
(dp1186
g3
(lp1187
S'rifampin'
p1188
asg6
g7
sg8
g1185
ssS'bl2e_cfxa'
p1189
(dp1190
g3
(lp1191
S'cephalosporin'
p1192
asg6
g7
sg8
g1189
ssS'pac'
p1193
(dp1194
g3
(lp1195
S'puromycin'
p1196
asg6
g7
sg8
g1193
ssS'qac'
p1197
(dp1198
g3
(lp1199
S'qa_compound'
p1200
asg60
S'Small Multidrug Resistance (SMR) protein family. Multidrug resistance efflux pump, which consists of two proteins.'
p1201
sg6
g7
sg8
g1197
ssS'srmb'
p1202
(dp1203
g3
(lp1204
S'macrolide'
p1205
asg6
g7
sg8
g1202
ssS'bl2a_exo'
p1206
(dp1207
g3
(lp1208
S'penicillin'
p1209
asg6
g7
sg8
g1206
ssS'fusb'
p1210
(dp1211
g3
(lp1212
S'fusaric_acid'
p1213
asg60
S'Involved in the resistance (detoxification) of the fungal toxin fusaric acid.'
p1214
sg6
g7
sg8
g1210
ssS'bl2c_bro'
p1215
(dp1216
g3
(lp1217
S'penicillin'
p1218
asg6
g7
sg8
g1215
ssS'fush'
p1219
(dp1220
g3
(lp1221
S'fusidic_acid'
p1222
asg60
S'Esterase enzyme inactivating fusidic acid'
p1223
sg6
g7
sg8
g1219
ssS'bl1_ampc'
p1224
(dp1225
g3
(lp1226
S'cephalosporin'
p1227
asg6
g7
sg8
g1224
ssS'meca'
p1228
(dp1229
g3
(lp1230
S'beta_lactam'
p1231
asg60
S'Penicillin binding protein, which has a low affinity for beta-lactams and catalyze a penicillin-insensitive transpeptidation.'
p1232
sg6
g7
sg8
g1228
ssS'opmd'
p1233
(dp1234
g21
(lp1235
S'mexi'
p1236
asg6
g7
sg8
g1233
ssS'bl2be_shv2'
p1237
(dp1238
g3
(lp1239
S'penicillin'
p1240
asg6
g7
sg8
g1237
ssS'mls_abc'
p1241
(dp1242
g60
S'ABC transporter system, Macrolide-Lincosamide-Streptogramin B efflux pump.'
p1243
sg6
g7
sg8
g1241
ssS'ant3ia'
p1244
(dp1245
g3
(lp1246
S'streptomycin'
p1247
asg6
g7
sg8
g1244
ssS'lnua'
p1248
(dp1249
g3
(lp1250
S'lincomycin'
p1251
asg6
g7
sg8
g1248
ssS'lnub'
p1252
(dp1253
g3
(lp1254
S'lincomycin'
p1255
asg6
g7
sg8
g1252
ssS'aph3iia'
p1256
(dp1257
g3
(lp1258
S'gentamincin_b'
p1259
asg6
g7
sg8
g1256
ssS'tetk'
p1260
(dp1261
g3
(lp1262
S'tetracycline'
p1263
asg6
g7
sg8
g1260
ssS'ant6ia'
p1264
(dp1265
g3
(lp1266
S'streptomycin'
p1267
asg6
g7
sg8
g1264
ssS'rosa'
p1268
(dp1269
g3
(lp1270
S'fosmidomycin'
p1271
asg21
(lp1272
S'rosb'
p1273
asg6
g7
sg8
g1268
ssS'rosb'
p1274
(dp1275
g3
(lp1276
S'fosmidomycin'
p1277
asg21
(lp1278
S'rosa'
p1279
asg6
g7
sg8
g1274
ssS'mexvw'
p1280
(dp1281
g60
S'Resistance-nodulation-cell division transporter system. Multidrug resistance efflux pump.'
p1282
sg6
g7
sg8
g1280
ssS'mphc'
p1283
(dp1284
g3
(lp1285
S'macrolide'
p1286
asg6
g7
sg8
g1283
ssS'mphb'
p1287
(dp1288
g3
(lp1289
S'macrolide'
p1290
asg6
g7
sg8
g1287
ssS'mpha'
p1291
(dp1292
g3
(lp1293
S'macrolide'
p1294
asg6
g7
sg8
g1291
ssS'tmrb'
p1295
(dp1296
g3
(lp1297
S'tunicamycin'
p1298
asg6
g7
sg8
g1295
ssS'tcma'
p1299
(dp1300
g3
(lp1301
S'tetracenomycin_c'
p1302
asg60
S'Major facilitator superfamily transporter. Resistance to tetracenomycin C by an active tetracenomycin C efflux system which is probably energized by transmembrane electrochemical gradients.'
p1303
sg6
g7
sg8
g1299
ssS'amr'
p1304
(dp1305
g60
S'Resistance-nodulation-cell division transporter system. Multidrug resistance efflux pump.'
p1306
sg6
g7
sg8
g1304
ssS'oprj'
p1307
(dp1308
g3
(lp1309
S'erythromycin'
p1310
asg21
(lp1311
S'mexd'
p1312
asg6
g7
sg8
g1307
ssS'oprn'
p1313
(dp1314
g3
(lp1315
S'fluoroquinolone'
p1316
asg21
(lp1317
S'mexf'
p1318
asg6
g7
sg8
g1313
ssS'mexx'
p1319
(dp1320
g3
(lp1321
S'glycylcycline'
p1322
asg21
(lp1323
S'oprm'
p1324
asg6
g7
sg8
g1319
ssS'mexy'
p1325
(dp1326
g3
(lp1327
S'glycylcycline'
p1328
asg21
(lp1329
S'oprm'
p1330
asg6
g7
sg8
g1325
ssS'mexv'
p1331
(dp1332
g21
(lp1333
S'oprm'
p1334
asg6
g7
sg8
g1331
ssS'mexw'
p1335
(dp1336
g21
(lp1337
S'oprm'
p1338
asg6
g7
sg8
g1335
ssS'opra'
p1339
(dp1340
g3
(lp1341
S'acriflavine'
p1342
asg21
(lp1343
S'amrb'
p1344
asg6
g7
sg8
g1339
ssS'mexj'
p1345
(dp1346
g21
(lp1347
S'oprm'
p1348
asg6
g7
sg8
g1345
ssS'mexk'
p1349
(dp1350
g21
(lp1351
S'oprm'
p1352
asg6
g7
sg8
g1349
ssS'mexh'
p1353
(dp1354
g21
(lp1355
S'opmd'
p1356
asg6
g7
sg8
g1353
ssS'mexi'
p1357
(dp1358
g21
(lp1359
S'opmd'
p1360
asg6
g7
sg8
g1357
ssS'mexf'
p1361
(dp1362
g3
(lp1363
S'fluoroquinolone'
p1364
asg21
(lp1365
S'oprn'
p1366
asg6
g7
sg8
g1361
ssS'mexd'
p1367
(dp1368
g3
(lp1369
S'erythromycin'
p1370
asg21
(lp1371
S'oprj'
p1372
asg6
g7
sg8
g1367
ssS'mexe'
p1373
(dp1374
g3
(lp1375
S'fluoroquinolone'
p1376
asg21
(lp1377
S'oprn'
p1378
asg6
g7
sg8
g1373
ssS'mexb'
p1379
(dp1380
g3
(lp1381
S'tetracycline'
p1382
asg21
(lp1383
S'oprm'
p1384
asg6
g7
sg8
g1379
ssS'mexc'
p1385
(dp1386
g3
(lp1387
S'erythromycin'
p1388
asg21
(lp1389
S'oprj'
p1390
asg6
g7
sg8
g1385
ssS'mexa'
p1391
(dp1392
g3
(lp1393
S'tetracycline'
p1394
asg21
(lp1395
S'oprm'
p1396
asg6
g7
sg8
g1391
ssS'ermh'
p1397
(dp1398
g3
(lp1399
S'macrolide'
p1400
asg6
g7
sg8
g1397
ssS'ermn'
p1401
(dp1402
g3
(lp1403
S'macrolide'
p1404
asg6
g7
sg8
g1401
ssS'ermo'
p1405
(dp1406
g3
(lp1407
S'macrolide'
p1408
asg6
g7
sg8
g1405
ssS'baca'
p1409
(dp1410
g3
(lp1411
S'bacitracin'
p1412
asg60
S'Undecaprenyl pyrophosphate phosphatase, which consists in the sequestration of Undecaprenyl pyrophosphate.'
p1413
sg6
g7
sg8
g1409
ssS'ermb'
p1414
(dp1415
g3
(lp1416
S'macrolide'
p1417
asg6
g7
sg8
g1414
ssS'ermc'
p1418
(dp1419
g3
(lp1420
S'macrolide'
p1421
asg6
g7
sg8
g1418
ssS'erma'
p1422
(dp1423
g3
(lp1424
S'macrolide'
p1425
asg6
g7
sg8
g1422
ssS'ermf'
p1426
(dp1427
g3
(lp1428
S'macrolide'
p1429
asg6
g7
sg8
g1426
ssS'ermg'
p1430
(dp1431
g3
(lp1432
S'macrolide'
p1433
asg6
g7
sg8
g1430
ssS'ermd'
p1434
(dp1435
g3
(lp1436
S'macrolide'
p1437
asg6
g7
sg8
g1434
ssS'erme'
p1438
(dp1439
g3
(lp1440
S'macrolide'
p1441
asg6
g7
sg8
g1438
ssS'vatc'
p1442
(dp1443
g3
(lp1444
S'streptogramin_a'
p1445
asg6
g7
sg8
g1442
ssS'vatb'
p1446
(dp1447
g3
(lp1448
S'streptogramin_a'
p1449
asg6
g7
sg8
g1446
ssS'vata'
p1450
(dp1451
g3
(lp1452
S'streptogramin_a'
p1453
asg6
g7
sg8
g1450
ssS'ermy'
p1454
(dp1455
g3
(lp1456
S'macrolide'
p1457
asg6
g7
sg8
g1454
ssS'vate'
p1458
(dp1459
g3
(lp1460
S'streptogramin_a'
p1461
asg6
g7
sg8
g1458
ssS'vatd'
p1462
(dp1463
g3
(lp1464
S'streptogramin_a'
p1465
asg6
g7
sg8
g1462
ssS'ermr'
p1466
(dp1467
g3
(lp1468
S'macrolide'
p1469
asg6
g7
sg8
g1466
ssS'erms'
p1470
(dp1471
g3
(lp1472
S'macrolide'
p1473
asg6
g7
sg8
g1470
ssS'ermq'
p1474
(dp1475
g3
(lp1476
S'macrolide'
p1477
asg6
g7
sg8
g1474
ssS'ermv'
p1478
(dp1479
g3
(lp1480
S'macrolide'
p1481
asg6
g7
sg8
g1478
ssS'ermw'
p1482
(dp1483
g3
(lp1484
S'macrolide'
p1485
asg6
g7
sg8
g1482
ssS'ermt'
p1486
(dp1487
g3
(lp1488
S'macrolide'
p1489
asg6
g7
sg8
g1486
ssS'ermu'
p1490
(dp1491
g3
(lp1492
S'macrolide'
p1493
asg6
g7
sg8
g1490
ssS'tmr'
p1494
(dp1495
g60
S'Mechanism unknown.'
p1496
sg6
g7
sg8
g1494
ssS'fos'
p1497
(dp1498
g60
S'Glutathione transferase, metalloglutathione transferase which confers resistance to fosfomycin by catalyzing the addition of glutathione to fosfomycin'
p1499
sg6
g7
sg8
g1497
ssS'ykk'
p1500
(dp1501
g60
S'Small Multidrug Resistance (SMR) protein family. Multidrug resistance efflux pump, which consists of two proteins.'
p1502
sg6
g7
sg8
g1500
ssS'ceob'
p1503
(dp1504
g3
(lp1505
S'chloramphenicol'
p1506
asg21
(lp1507
S'opcm'
p1508
asg6
g7
sg8
g1503
ssS'tet39'
p1509
(dp1510
g3
(lp1511
S'tetracycline'
p1512
asg6
g7
sg8
g1509
ssS'bl2e_fpm'
p1513
(dp1514
g3
(lp1515
S'cephalosporin'
p1516
asg6
g7
sg8
g1513
ssS'tet37'
p1517
(dp1518
g3
(lp1519
S'tetracycline'
p1520
asg6
g7
sg8
g1517
ssS'tet36'
p1521
(dp1522
g3
(lp1523
S'tetracycline'
p1524
asg6
g7
sg8
g1521
ssS'bl2d_oxa5'
p1525
(dp1526
g3
(lp1527
S'penicillin'
p1528
asg6
g7
sg8
g1525
ssS'tet34'
p1529
(dp1530
g3
(lp1531
S'tetracycline'
p1532
asg6
g7
sg8
g1529
ssS'tet33'
p1533
(dp1534
g3
(lp1535
S'tetracycline'
p1536
asg6
g7
sg8
g1533
ssS'tet32'
p1537
(dp1538
g3
(lp1539
S'tetracycline'
p1540
asg6
g7
sg8
g1537
ssS'tet31'
p1541
(dp1542
g3
(lp1543
S'tetracycline'
p1544
asg6
g7
sg8
g1541
ssS'tet30'
p1545
(dp1546
g3
(lp1547
S'tetracycline'
p1548
asg6
g7
sg8
g1545
ssS'aadd'
p1549
(dp1550
g3
(lp1551
S'kanamycin'
p1552
asg6
g7
sg8
g1549
ssS'rosab'
p1553
(dp1554
g60
S'Efflux pump/potassium antiporter system. RosA: Major facilitator superfamily transporter. RosB: Potassium antiporter.'
p1555
sg6
g7
sg8
g1553
ssS'bl2a_kcc'
p1556
(dp1557
g3
(lp1558
S'penicillin'
p1559
asg6
g7
sg8
g1556
ssS'dfra21'
p1560
(dp1561
g3
(lp1562
S'trimethoprim'
p1563
asg6
g7
sg8
g1560
ssS'dfra20'
p1564
(dp1565
g3
(lp1566
S'trimethoprim'
p1567
asg6
g7
sg8
g1564
ssS'dfra23'
p1568
(dp1569
g3
(lp1570
S'trimethoprim'
p1571
asg6
g7
sg8
g1568
ssS'dfra22'
p1572
(dp1573
g3
(lp1574
S'trimethoprim'
p1575
asg6
g7
sg8
g1572
ssS'dfra25'
p1576
(dp1577
g3
(lp1578
S'trimethoprim'
p1579
asg6
g7
sg8
g1576
ssS'dfra24'
p1580
(dp1581
g3
(lp1582
S'trimethoprim'
p1583
asg6
g7
sg8
g1580
ssS'dfra26'
p1584
(dp1585
g3
(lp1586
S'trimethoprim'
p1587
asg6
g7
sg8
g1584
ssS'acr'
p1588
(dp1589
g60
S'Resistance-nodulation-cell division transporter system. Multidrug resistance efflux pump.'
p1590
sg6
g7
sg8
g1588
ssS'adea'
p1591
(dp1592
g3
(lp1593
S'fluoramphenicol'
p1594
asg21
(lp1595
S'adec'
p1596
asg6
g7
sg8
g1591
ssS'adeb'
p1597
(dp1598
g3
(lp1599
S'aminoglycoside'
p1600
asg21
(lp1601
S'adec'
p1602
asg6
g7
sg8
g1597
ssS'adec'
p1603
(dp1604
g3
(lp1605
S'aminoglycoside'
p1606
asg21
(lp1607
S'adeb'
p1608
asg6
g7
sg8
g1603
ssS'smedef'
p1609
(dp1610
g60
S'Resistance-nodulation-cell division transporter system. Multidrug resistance efflux pump.'
p1611
sg6
g7
sg8
g1609
ssS'aph6ia'
p1612
(dp1613
g3
(lp1614
S'streptomycin'
p1615
asg6
g7
sg8
g1612
ssS'aph6ib'
p1616
(dp1617
g3
(lp1618
S'streptomycin'
p1619
asg6
g7
sg8
g1616
ssS'aac6iib'
p1620
(dp1621
g3
(lp1622
S'gentamicin'
p1623
asg6
g7
sg8
g1620
ssS'aac6iia'
p1624
(dp1625
g3
(lp1626
S'gentamicin'
p1627
asg6
g7
sg8
g1624
ssS'pbp2'
p1628
(dp1629
g3
(lp1630
S'penicillin'
p1631
asg6
g7
sg8
g1628
ssS'vansg'
p1632
(dp1633
g3
(lp1634
S'vancomycin'
p1635
asg21
(lp1636
S'vanug'
p1637
asg6
g7
sg8
g1632
ssS'bl1_fox'
p1638
(dp1639
g3
(lp1640
S'cephalosporin'
p1641
asg6
g7
sg8
g1638
ssS'vansd'
p1642
(dp1643
g3
(lp1644
S'teicoplanin'
p1645
asg21
(lp1646
S'vanrd'
p1647
asg6
g7
sg8
g1642
ssS'mdtnop'
p1648
(dp1649
g60
S'Resistance-nodulation-cell division transporter system. Multidrug resistance efflux pump.'
p1650
sg6
g7
sg8
g1648
ssS'vat'
p1651
(dp1652
g60
S'Virginiamycin A acetyltransferase, which can inactivate the target drug.'
p1653
sg6
g7
sg8
g1651
ssS'vansa'
p1654
(dp1655
g3
(lp1656
S'teicoplanin'
p1657
asg21
(lp1658
S'vanra'
p1659
asg6
g7
sg8
g1654
ssS'aph3via'
p1660
(dp1661
g3
(lp1662
S'ribostamycin'
p1663
asg6
g7
sg8
g1660
ssS'bl2e_y56'
p1664
(dp1665
g3
(lp1666
S'cephalosporin'
p1667
asg6
g7
sg8
g1664
ssS'bl1_acc'
p1668
(dp1669
g3
(lp1670
S'cephalosporin'
p1671
asg6
g7
sg8
g1668
ssS'aac2id'
p1672
(dp1673
g3
(lp1674
S'gentamicin'
p1675
asg6
g7
sg8
g1672
ssS'aph3ia'
p1676
(dp1677
g3
(lp1678
S'gentamincin_b'
p1679
asg6
g7
sg8
g1676
ssS'aac2ia'
p1680
(dp1681
g3
(lp1682
S'gentamicin'
p1683
asg6
g7
sg8
g1680
ssS'aac2ib'
p1684
(dp1685
g3
(lp1686
S'gentamicin'
p1687
asg6
g7
sg8
g1684
ssS'aph3ib'
p1688
(dp1689
g3
(lp1690
S'gentamincin_b'
p1691
asg6
g7
sg8
g1688
ssS'aac2ic'
p1692
(dp1693
g3
(lp1694
S'gentamicin'
p1695
asg6
g7
sg8
g1692
ssS'bl2be_per'
p1696
(dp1697
g3
(lp1698
S'penicillin'
p1699
asg6
g7
sg8
g1696
ssS'bl2a_1'
p1700
(dp1701
g3
(lp1702
S'penicillin'
p1703
asg6
g7
sg8
g1700
ssS'aac3x'
p1704
(dp1705
g3
(lp1706
S'aminoglycoside'
p1707
asg6
g7
sg8
g1704
ssS'ermx'
p1708
(dp1709
g3
(lp1710
S'macrolide'
p1711
asg6
g7
sg8
g1708
ssS'bl2c_pse3'
p1712
(dp1713
g3
(lp1714
S'penicillin'
p1715
asg6
g7
sg8
g1712
ssS'arna'
p1716
(dp1717
g3
(lp1718
S'polymyxin'
p1719
asg60
S'Bifunctional enzyme that catalyzes the oxidative decarboxylation of UDP-glucuronic acid (UDP-GlcUA) to UDP-4-keto-arabinose (UDP-Ara4O) and the addition of a formyl group to UDP-4-amino-4-deoxy-L-arabinose (UDP-L-Ara4N) to form UDP-L-4-formamido-arabinose (UDP-L-Ara4FN). The modified arabinose is attached to lipid A and is required for resistance to polymyxin and cationic antimicrobial peptides.'
p1720
sg6
g7
sg8
g1716
ssS'bl2b_tem1'
p1721
(dp1722
g3
(lp1723
S'cephalosporin_i'
p1724
asg6
g7
sg8
g1721
ssS'tets'
p1725
(dp1726
g3
(lp1727
S'tetracycline'
p1728
asg6
g7
sg8
g1725
ssS'bl2be_oxy1'
p1729
(dp1730
g3
(lp1731
S'penicillin'
p1732
asg6
g7
sg8
g1729
ssS'vanxa'
p1733
(dp1734
g3
(lp1735
S'teicoplanin'
p1736
asg21
(lp1737
S'vansa'
p1738
asg6
g7
sg8
g1733
ssS'opcm'
p1739
(dp1740
g3
(lp1741
S'chloramphenicol'
p1742
asg21
(lp1743
S'ceob'
p1744
asg6
g7
sg8
g1739
ssS'vanug'
p1745
(dp1746
g3
(lp1747
S'vancomycin'
p1748
asg21
(lp1749
S'vanwg'
p1750
asg6
g7
sg8
g1745
ssS'aad9'
p1751
(dp1752
g3
(lp1753
S'spectomycin'
p1754
asg6
g7
sg8
g1751
ssS'teth'
p1755
(dp1756
g3
(lp1757
S'tetracycline'
p1758
asg6
g7
sg8
g1755
ssS'aac3viii'
p1759
(dp1760
g3
(lp1761
S'ribostamycin'
p1762
asg6
g7
sg8
g1759
ssS'aph3viia'
p1763
(dp1764
g3
(lp1765
S'kanamycin'
p1766
asg6
g7
sg8
g1763
ssS'tetj'
p1767
(dp1768
g3
(lp1769
S'tetracycline'
p1770
asg6
g7
sg8
g1767
ssS'tetm'
p1771
(dp1772
g3
(lp1773
S'tetracycline'
p1774
asg6
g7
sg8
g1771
ssS'tetl'
p1775
(dp1776
g3
(lp1777
S'tetracycline'
p1778
asg6
g7
sg8
g1775
ssS'ceoa'
p1779
(dp1780
g3
(lp1781
S'chloramphenicol'
p1782
asg21
(lp1783
S'opcm'
p1784
asg6
g7
sg8
g1779
ssS'aac3iv'
p1785
(dp1786
g3
(lp1787
S'apramycin'
p1788
asg6
g7
sg8
g1785
ssS'aac3ix'
p1789
(dp1790
g3
(lp1791
S'neomycin'
p1792
asg6
g7
sg8
g1789
ssS'aac3ia'
p1793
(dp1794
g3
(lp1795
S'gentamicin'
p1796
asg6
g7
sg8
g1793
ssS'teta'
p1797
(dp1798
g3
(lp1799
S'tetracycline'
p1800
asg6
g7
sg8
g1797
ssS'mexxy'
p1801
(dp1802
g60
S'Resistance-nodulation-cell division transporter system. Multidrug resistance efflux pump.'
p1803
sg6
g7
sg8
g1801
ssS'tety'
p1804
(dp1805
g3
(lp1806
S'tetracycline'
p1807
asg6
g7
sg8
g1804
ssS'bmr'
p1808
(dp1809
g3
(lp1810
S'fluoroquinolone'
p1811
asg60
S'Major facilitator superfamily transporter. Multidrug resistance efflux pump.'
p1812
sg6
g7
sg8
g1808
ssS'bl2be_k'
p1813
(dp1814
g3
(lp1815
S'penicillin'
p1816
asg6
g7
sg8
g1813
ssS'tetz'
p1817
(dp1818
g3
(lp1819
S'tetracycline'
p1820
asg6
g7
sg8
g1817
ssS'tetq'
p1821
(dp1822
g3
(lp1823
S'tetracycline'
p1824
asg6
g7
sg8
g1821
ssS'qnrb'
p1825
(dp1826
g3
(lp1827
S'fluoroquinolone'
p1828
asg6
g7
sg8
g1825
ssS'qnra'
p1829
(dp1830
g3
(lp1831
S'fluoroquinolone'
p1832
asg6
g7
sg8
g1829
ssS'tetu'
p1833
(dp1834
g3
(lp1835
S'tetracycline'
p1836
asg6
g7
sg8
g1833
ssS'tett'
p1837
(dp1838
g3
(lp1839
S'tetracycline'
p1840
asg6
g7
sg8
g1837
ssS'tetw'
p1841
(dp1842
g3
(lp1843
S'tetracycline'
p1844
asg6
g7
sg8
g1841
ssS'tetv'
p1845
(dp1846
g3
(lp1847
S'tetracycline'
p1848
asg6
g7
sg8
g1845
ssS'vanra'
p1849
(dp1850
g3
(lp1851
S'teicoplanin'
p1852
asg21
(lp1853
S'vansa'
p1854
asg6
g7
sg8
g1849
ssS'vanrb'
p1855
(dp1856
g3
(lp1857
S'vancomycin'
p1858
asg21
(lp1859
S'vanwb'
p1860
asg6
g7
sg8
g1855
ssS'vanrc'
p1861
(dp1862
g3
(lp1863
S'vancomycin'
p1864
asg21
(lp1865
S'vansc'
p1866
asg6
g7
sg8
g1861
ssS'vanrd'
p1867
(dp1868
g3
(lp1869
S'teicoplanin'
p1870
asg21
(lp1871
S'vansd'
p1872
asg6
g7
sg8
g1867
ssS'vanre'
p1873
(dp1874
g3
(lp1875
S'vancomycin'
p1876
asg21
(lp1877
S'vanse'
p1878
asg6
g7
sg8
g1873
ssS'teto'
p1879
(dp1880
g3
(lp1881
S'tetracycline'
p1882
asg6
g7
sg8
g1879
ssS'vanrg'
p1883
(dp1884
g3
(lp1885
S'vancomycin'
p1886
asg21
(lp1887
S'vanug'
p1888
asg6
g7
sg8
g1883
ssS'qnrs'
p1889
(dp1890
g3
(lp1891
S'fluoroquinolone'
p1892
asg6
g7
sg8
g1889
ssS'tetc'
p1893
(dp1894
g3
(lp1895
S'tetracycline'
p1896
asg6
g7
sg8
g1893
ssS'tetb'
p1897
(dp1898
g3
(lp1899
S'tetracycline'
p1900
asg6
g7
sg8
g1897
ssS'tete'
p1901
(dp1902
g3
(lp1903
S'tetracycline'
p1904
asg6
g7
sg8
g1901
ssS'tetd'
p1905
(dp1906
g3
(lp1907
S'tetracycline'
p1908
asg6
g7
sg8
g1905
ssS'tetg'
p1909
(dp1910
g3
(lp1911
S'tetracycline'
p1912
asg6
g7
sg8
g1909
ss.